(dp0
S'[(13, 1), (8, 4)]'
p1
(lp2
F6353.0
aI11343
aF0.5600811072908402
asS'[(6, 1), (11, 1)]'
p3
(lp4
F5945.0
aI11469
aF0.5183538233498998
asS'[(13, 2), (3, 4)]'
p5
(lp6
F5612.0
aI11357
aF0.494144580434974
asS'[(14, 2), (13, 3)]'
p7
(lp8
F7541.5
aI11381
aF0.6626394868640717
asS'[(13, 3), (12, 1)]'
p9
(lp10
F7046.5
aI11422
aF0.6169234810015759
asS'[(2, 3), (5, 3)]'
p11
(lp12
F4127.5
aI11339
aF0.36400917188464593
asS'[(13, 2), (3, 1)]'
p13
(lp14
F5655.0
aI11394
aF0.49631384939441814
asS'[(13, 3), (12, 4)]'
p15
(lp16
F7067.0
aI11400
aF0.6199122807017544
asS'[(6, 3), (7, 3)]'
p17
(lp18
F5175.5
aI11333
aF0.4566751963293038
asS'[(8, 3), (5, 4)]'
p19
(lp20
F4786.5
aI11333
aF0.4223506573722757
asS'[(11, 4), (11, 2)]'
p21
(lp22
F8991.5
aI11344
aF0.7926216502115656
asS'[(6, 1), (5, 3)]'
p23
(lp24
F4534.5
aI11123
aF0.4076687943900027
asS'[(9, 1), (2, 4)]'
p25
(lp26
F4317.5
aI11299
aF0.3821134613682627
asS'[(7, 2), (12, 2)]'
p27
(lp28
F6007.5
aI11189
aF0.5369112521226205
asS'[(11, 1), (7, 2)]'
p29
(lp30
F5626.5
aI11016
aF0.5107570806100218
asS'[(14, 3), (10, 2)]'
p31
(lp32
F7234.5
aI11490
aF0.6296344647519583
asS'[(7, 1), (4, 4)]'
p33
(lp34
F4402.0
aI11498
aF0.38284919116368066
asS'[(4, 2), (6, 1)]'
p35
(lp36
F4432.5
aI11354
aF0.3903910516117668
asS'[(4, 3), (14, 4)]'
p37
(lp38
F5934.0
aI11219
aF0.5289241465371245
asS'[(5, 1), (3, 3)]'
p39
(lp40
F3943.5
aI11348
aF0.3475061684878393
asS'[(13, 4), (2, 4)]'
p41
(lp42
F5847.0
aI11214
aF0.5214018191546281
asS'[(12, 3), (10, 3)]'
p43
(lp44
F6635.0
aI11228
aF0.5909333808336302
asS'[(6, 3), (6, 4)]'
p45
(lp46
F7221.0
aI11281
aF0.6401028277634961
asS'[(8, 2), (11, 4)]'
p47
(lp48
F6048.5
aI11286
aF0.5359294701399965
asS'[(13, 4), (6, 1)]'
p49
(lp50
F6236.5
aI11457
aF0.5443397049838526
asS'[(7, 1), (10, 1)]'
p51
(lp52
F5820.0
aI11357
aF0.5124592762173109
asS'[(9, 3), (3, 2)]'
p53
(lp54
F4434.5
aI11236
aF0.3946689213243147
asS'[(4, 1), (7, 2)]'
p55
(lp56
F4437.0
aI11386
aF0.38968909186720535
asS'[(3, 1), (13, 2)]'
p57
(lp58
F5586.0
aI11405
aF0.4897851819377466
asS'[(7, 3), (4, 4)]'
p59
(lp60
F4324.0
aI11176
aF0.3869005010737294
asS'[(4, 2), (4, 1)]'
p61
(lp62
F6498.0
aI11266
aF0.5767796911059826
asS'[(4, 1), (6, 2)]'
p63
(lp64
F4279.5
aI11203
aF0.3819958939569758
asS'[(8, 3), (2, 1)]'
p65
(lp66
F4190.0
aI11160
aF0.37544802867383514
asS'[(3, 4), (12, 4)]'
p67
(lp68
F5614.0
aI11203
aF0.5011157725609212
asS'[(4, 4), (7, 2)]'
p69
(lp70
F4472.5
aI11286
aF0.39628743576111997
asS'[(14, 1), (4, 4)]'
p71
(lp72
F6141.0
aI11377
aF0.5397732266854179
asS'[(5, 4), (8, 1)]'
p73
(lp74
F4806.0
aI11384
aF0.42217146872803935
asS'[(8, 1), (13, 2)]'
p75
(lp76
F6355.5
aI11249
aF0.5649835540936973
asS'[(7, 3), (10, 2)]'
p77
(lp78
F5447.0
aI11234
aF0.4848673669218444
asS'[(5, 2), (6, 2)]'
p79
(lp80
F4977.0
aI11279
aF0.4412625232733398
asS'[(3, 4), (13, 4)]'
p81
(lp82
F5714.0
aI11064
aF0.5164497469269703
asS'[(11, 3), (4, 1)]'
p83
(lp84
F5163.0
aI11328
aF0.4557733050847458
asS'[(12, 2), (7, 1)]'
p85
(lp86
F5876.0
aI11230
aF0.5232413178984862
asS'[(9, 1), (11, 4)]'
p87
(lp88
F6174.5
aI11426
aF0.5403903378260109
asS'[(11, 3), (9, 1)]'
p89
(lp90
F6051.5
aI11207
aF0.5399750156152405
asS'[(13, 3), (7, 4)]'
p91
(lp92
F6253.5
aI11305
aF0.5531623175586023
asS'[(11, 3), (4, 4)]'
p93
(lp94
F5099.0
aI11371
aF0.4484214229179492
asS'[(9, 1), (8, 3)]'
p95
(lp96
F5592.0
aI11492
aF0.48659937347720156
asS'[(5, 1), (7, 1)]'
p97
(lp98
F5030.0
aI11436
aF0.4398391045820217
asS'[(10, 2), (11, 4)]'
p99
(lp100
F6391.5
aI11271
aF0.5670747937183923
asS'[(6, 3), (11, 4)]'
p101
(lp102
F5388.0
aI11217
aF0.480342337523402
asS'[(2, 4), (7, 3)]'
p103
(lp104
F3920.0
aI11163
aF0.35116008241512137
asS'[(11, 1), (8, 2)]'
p105
(lp106
F5707.5
aI11086
aF0.5148385350893018
asS'[(8, 4), (6, 4)]'
p107
(lp108
F5462.5
aI11361
aF0.48081154827920075
asS'[(10, 3), (2, 3)]'
p109
(lp110
F4985.5
aI11336
aF0.43979357798165136
asS'[(9, 3), (3, 4)]'
p111
(lp112
F4474.0
aI11270
aF0.39698314108252
asS'[(12, 2), (2, 3)]'
p113
(lp114
F5111.5
aI11173
aF0.4574867985321758
asS'[(13, 3), (2, 1)]'
p115
(lp116
F5431.5
aI11240
aF0.48322953736654806
asS'[(7, 4), (9, 2)]'
p117
(lp118
F5354.5
aI11268
aF0.47519524316648915
asS'[(12, 1), (8, 3)]'
p119
(lp120
F6017.0
aI11157
aF0.5393026799318813
asS'[(8, 1), (10, 2)]'
p121
(lp122
F5638.5
aI11122
aF0.5069681711922316
asS'[(12, 3), (4, 1)]'
p123
(lp124
F5349.5
aI11173
aF0.47878815000447505
asS'[(6, 2), (5, 3)]'
p125
(lp126
F4708.0
aI11446
aF0.41132273283243054
asS'[(8, 3), (12, 2)]'
p127
(lp128
F6051.0
aI11325
aF0.5343046357615894
asS'[(10, 1), (7, 4)]'
p129
(lp130
F5541.0
aI11478
aF0.48274960794563515
asS'[(2, 1), (14, 4)]'
p131
(lp132
F5898.0
aI11311
aF0.5214393068694192
asS'[(11, 4), (12, 2)]'
p133
(lp134
F6574.5
aI11342
aF0.5796596720155175
asS'[(6, 1), (14, 4)]'
p135
(lp136
F6363.0
aI11104
aF0.5730367435158501
asS'[(6, 3), (12, 1)]'
p137
(lp138
F5850.5
aI11372
aF0.5144653534998241
asS'[(11, 3), (7, 4)]'
p139
(lp140
F5687.5
aI11342
aF0.501454769881855
asS'[(4, 1), (7, 4)]'
p141
(lp142
F4518.0
aI11528
aF0.39191533657182515
asS'[(3, 1), (13, 4)]'
p143
(lp144
F5582.0
aI11319
aF0.49315310539800333
asS'[(7, 1), (3, 4)]'
p145
(lp146
F4103.5
aI11212
aF0.36599179450588654
asS'[(10, 1), (4, 1)]'
p147
(lp148
F5321.5
aI11549
aF0.46077582474673134
asS'[(2, 2), (8, 1)]'
p149
(lp150
F4285.5
aI11406
aF0.3757233035244608
asS'[(6, 2), (6, 4)]'
p151
(lp152
F7143.0
aI11168
aF0.6395952722063037
asS'[(12, 4), (6, 1)]'
p153
(lp154
F5797.5
aI11395
aF0.508775778850373
asS'[(4, 3), (8, 4)]'
p155
(lp156
F4431.5
aI11210
aF0.39531668153434435
asS'[(2, 1), (5, 4)]'
p157
(lp158
F3641.0
aI11313
aF0.3218421285247061
asS'[(4, 1), (3, 4)]'
p159
(lp160
F3695.5
aI11222
aF0.3293085011584388
asS'[(6, 2), (5, 1)]'
p161
(lp162
F4556.0
aI11221
aF0.4060244185010249
asS'[(7, 3), (7, 4)]'
p163
(lp164
F7652.5
aI11408
aF0.6708011921458625
asS'[(7, 1), (6, 1)]'
p165
(lp166
F5332.0
aI11303
aF0.4717331681854375
asS'[(2, 4), (13, 2)]'
p167
(lp168
F5471.0
aI11283
aF0.48488877071700787
asS'[(3, 3), (8, 2)]'
p169
(lp170
F4264.0
aI11336
aF0.3761467889908257
asS'[(14, 2), (11, 1)]'
p171
(lp172
F7226.0
aI11265
aF0.6414558366622282
asS'[(2, 3), (11, 2)]'
p173
(lp174
F4841.0
aI11184
aF0.43285050071530756
asS'[(10, 1), (10, 2)]'
p175
(lp176
F8603.5
aI11408
aF0.7541637447405329
asS'[(11, 1), (13, 1)]'
p177
(lp178
F7100.5
aI11301
aF0.6283072294487213
asS'[(14, 3), (8, 3)]'
p179
(lp180
F6963.0
aI11277
aF0.6174514498536845
asS'[(4, 1), (2, 4)]'
p181
(lp182
F3616.5
aI11296
aF0.3201575779036827
asS'[(6, 3), (6, 1)]'
p183
(lp184
F7147.0
aI11230
aF0.636420302760463
asS'[(7, 1), (14, 2)]'
p185
(lp186
F6598.5
aI11243
aF0.5868985146313261
asS'[(8, 1), (6, 4)]'
p187
(lp188
F5110.0
aI11448
aF0.44636617749825297
asS'[(12, 2), (2, 1)]'
p189
(lp190
F4992.0
aI10946
aF0.45605700712589076
asS'[(13, 3), (8, 1)]'
p191
(lp192
F6464.0
aI11367
aF0.5686636755520366
asS'[(2, 1), (8, 2)]'
p193
(lp194
F4191.5
aI11342
aF0.36955563392699703
asS'[(8, 1), (14, 2)]'
p195
(lp196
F6727.5
aI11258
aF0.5975750577367206
asS'[(8, 1), (5, 1)]'
p197
(lp198
F5265.0
aI11382
aF0.4625724828676858
asS'[(13, 2), (8, 3)]'
p199
(lp200
F6463.0
aI11373
aF0.5682757407895894
asS'[(4, 1), (4, 3)]'
p201
(lp202
F6525.5
aI11298
aF0.5775801026730395
asS'[(3, 1), (10, 3)]'
p203
(lp204
F4855.0
aI11377
aF0.42673815592862796
asS'[(2, 2), (13, 1)]'
p205
(lp206
F5459.5
aI11303
aF0.48301335928514555
asS'[(8, 3), (8, 2)]'
p207
(lp208
F7695.0
aI11076
aF0.6947453954496208
asS'[(11, 2), (5, 2)]'
p209
(lp210
F5564.5
aI11115
aF0.500629779577148
asS'[(3, 4), (9, 3)]'
p211
(lp212
F4436.5
aI11431
aF0.38811127635377485
asS'[(10, 1), (13, 2)]'
p213
(lp214
F6718.5
aI11227
aF0.5984234434844571
asS'[(4, 2), (2, 3)]'
p215
(lp216
F3557.0
aI11159
aF0.31875616094632137
asS'[(6, 1), (4, 3)]'
p217
(lp218
F4330.5
aI11312
aF0.3828235502121641
asS'[(13, 3), (2, 2)]'
p219
(lp220
F5509.5
aI11379
aF0.4841813867650936
asS'[(13, 1), (12, 4)]'
p221
(lp222
F6900.5
aI11221
aF0.6149630157739951
asS'[(9, 3), (11, 2)]'
p223
(lp224
F6198.0
aI11350
aF0.5460792951541851
asS'[(2, 3), (8, 1)]'
p225
(lp226
F4176.0
aI11258
aF0.3709362231302185
asS'[(4, 2), (10, 3)]'
p227
(lp228
F4835.5
aI11356
aF0.42581014441704823
asS'[(8, 4), (5, 4)]'
p229
(lp230
F5179.0
aI11433
aF0.45298696755007434
asS'[(6, 3), (13, 1)]'
p231
(lp232
F6000.0
aI11184
aF0.5364806866952789
asS'[(3, 2), (3, 1)]'
p233
(lp234
F6078.5
aI11039
aF0.5506386448047831
asS'[(2, 4), (9, 3)]'
p235
(lp236
F4303.5
aI11296
aF0.38097556657223797
asS'[(2, 2), (13, 3)]'
p237
(lp238
F5585.0
aI11435
aF0.48841276781810233
asS'[(9, 3), (5, 4)]'
p239
(lp240
F4892.5
aI11194
aF0.43706449883866355
asS'[(7, 4), (4, 1)]'
p241
(lp242
F4489.5
aI11341
aF0.39586456220791816
asS'[(12, 4), (14, 2)]'
p243
(lp244
F7385.5
aI11287
aF0.6543368477008948
asS'[(10, 4), (11, 1)]'
p245
(lp246
F6449.5
aI11479
aF0.5618520777071173
asS'[(4, 4), (8, 1)]'
p247
(lp248
F4483.0
aI11247
aF0.3985951809371388
asS'[(9, 1), (10, 1)]'
p249
(lp250
F6308.5
aI11508
aF0.5481838720889816
asS'[(3, 4), (8, 1)]'
p251
(lp252
F4179.0
aI11347
aF0.36829117828500924
asS'[(2, 1), (7, 4)]'
p253
(lp254
F4014.0
aI11353
aF0.353562934907073
asS'[(6, 4), (14, 2)]'
p255
(lp256
F6513.0
aI11385
aF0.572068511198946
asS'[(10, 2), (2, 3)]'
p257
(lp258
F4512.5
aI11124
aF0.4056544408486156
asS'[(11, 4), (14, 4)]'
p259
(lp260
F7376.0
aI11291
aF0.6532636613231777
asS'[(11, 3), (11, 2)]'
p261
(lp262
F8717.0
aI11171
aF0.7803240533524304
asS'[(12, 1), (2, 4)]'
p263
(lp264
F5134.0
aI11302
aF0.45425588391435145
asS'[(11, 4), (3, 4)]'
p265
(lp266
F5226.0
aI11228
aF0.46544353402208766
asS'[(4, 4), (12, 3)]'
p267
(lp268
F5422.0
aI11349
aF0.4777513437307252
asS'[(10, 1), (8, 4)]'
p269
(lp270
F5782.0
aI11388
aF0.5077274323849666
asS'[(9, 4), (11, 2)]'
p271
(lp272
F6116.5
aI11207
aF0.5457749620772732
asS'[(8, 4), (14, 4)]'
p273
(lp274
F7010.5
aI11296
aF0.6206179178470255
asS'[(5, 4), (4, 4)]'
p275
(lp276
F4556.5
aI11272
aF0.4042317246273953
asS'[(9, 4), (7, 4)]'
p277
(lp278
F5721.5
aI11313
aF0.5057456024043137
asS'[(11, 3), (9, 3)]'
p279
(lp280
F6436.0
aI11405
aF0.5643138974134152
asS'[(4, 3), (5, 3)]'
p281
(lp282
F4646.5
aI11403
aF0.4074804875909848
asS'[(11, 4), (13, 4)]'
p283
(lp284
F7197.5
aI11331
aF0.6352043067690407
asS'[(13, 1), (4, 1)]'
p285
(lp286
F6028.5
aI11146
aF0.5408666786291046
asS'[(7, 3), (7, 1)]'
p287
(lp288
F7683.5
aI11540
aF0.6658145580589255
asS'[(7, 4), (2, 4)]'
p289
(lp290
F4299.0
aI11226
aF0.38295029396044894
asS'[(8, 3), (9, 1)]'
p291
(lp292
F5547.5
aI11196
aF0.49548946052161486
asS'[(2, 3), (5, 4)]'
p293
(lp294
F3631.0
aI11170
aF0.3250671441360788
asS'[(5, 1), (2, 3)]'
p295
(lp296
F3788.0
aI11365
aF0.3333040035195777
asS'[(8, 1), (9, 4)]'
p297
(lp298
F5687.5
aI11311
aF0.5028291044116346
asS'[(13, 1), (8, 2)]'
p299
(lp300
F6257.0
aI11134
aF0.5619723369858093
asS'[(11, 1), (7, 4)]'
p301
(lp302
F5573.5
aI11117
aF0.5013492848790141
asS'[(12, 4), (11, 1)]'
p303
(lp304
F6845.5
aI11517
aF0.5943822175913867
asS'[(13, 2), (6, 4)]'
p305
(lp306
F6088.5
aI11328
aF0.5374735169491526
asS'[(13, 3), (6, 4)]'
p307
(lp308
F6132.0
aI11345
aF0.5405024239753196
asS'[(13, 3), (4, 4)]'
p309
(lp310
F5865.0
aI11343
aF0.5170589791060566
asS'[(9, 1), (14, 3)]'
p311
(lp312
F6910.0
aI11353
aF0.6086496961155642
asS'[(12, 3), (6, 2)]'
p313
(lp314
F5801.0
aI11273
aF0.5145923888938171
asS'[(5, 2), (8, 1)]'
p315
(lp316
F4737.0
aI11212
aF0.4224937566892615
asS'[(3, 1), (10, 2)]'
p317
(lp318
F4738.0
aI11336
aF0.4179604798870854
asS'[(2, 1), (7, 2)]'
p319
(lp320
F3902.0
aI11291
aF0.34558497918696307
asS'[(9, 3), (2, 4)]'
p321
(lp322
F4436.0
aI11405
aF0.38895221394125384
asS'[(3, 1), (14, 4)]'
p323
(lp324
F5979.0
aI11365
aF0.5260888693356797
asS'[(10, 2), (6, 2)]'
p325
(lp326
F5689.5
aI11432
aF0.49768194541637506
asS'[(11, 2), (7, 3)]'
p327
(lp328
F5777.0
aI11437
aF0.5051149777039433
asS'[(8, 3), (14, 1)]'
p329
(lp330
F6788.5
aI11376
aF0.5967387482419128
asS'[(3, 3), (3, 4)]'
p331
(lp332
F6241.5
aI11407
aF0.5471640220916981
asS'[(12, 3), (13, 2)]'
p333
(lp334
F6902.5
aI11076
aF0.6231942939689419
asS'[(4, 1), (14, 3)]'
p335
(lp336
F6110.0
aI11313
aF0.5400866260054804
asS'[(14, 1), (8, 2)]'
p337
(lp338
F6698.5
aI11306
aF0.5924730231735362
asS'[(2, 2), (4, 2)]'
p339
(lp340
F3965.0
aI11386
aF0.34823467416125065
asS'[(6, 2), (4, 2)]'
p341
(lp342
F4733.0
aI11404
aF0.4150298141003157
asS'[(3, 1), (3, 4)]'
p343
(lp344
F6203.0
aI11273
aF0.5502528164641178
asS'[(2, 1), (2, 2)]'
p345
(lp346
F5945.0
aI11383
aF0.5222700518316788
asS'[(4, 4), (3, 1)]'
p347
(lp348
F3916.5
aI11350
aF0.3450660792951542
asS'[(9, 3), (4, 3)]'
p349
(lp350
F5032.0
aI11258
aF0.4469710428139989
asS'[(8, 3), (10, 1)]'
p351
(lp352
F5687.0
aI11205
aF0.507541276215975
asS'[(2, 1), (11, 3)]'
p353
(lp354
F4853.5
aI11308
aF0.429209409267775
asS'[(9, 2), (4, 1)]'
p355
(lp356
F4617.5
aI11203
aF0.41216638400428457
asS'[(7, 3), (8, 3)]'
p357
(lp358
F5653.5
aI11373
aF0.4970983909258771
asS'[(3, 1), (14, 1)]'
p359
(lp360
F6138.0
aI11196
aF0.5482315112540193
asS'[(9, 3), (3, 1)]'
p361
(lp362
F4617.0
aI11469
aF0.402563431859796
asS'[(11, 2), (11, 1)]'
p363
(lp364
F8731.0
aI11193
aF0.7800410971142678
asS'[(3, 3), (12, 2)]'
p365
(lp366
F5357.0
aI11475
aF0.4668409586056645
asS'[(8, 4), (8, 3)]'
p367
(lp368
F8032.5
aI11496
aF0.6987212943632568
asS'[(6, 3), (12, 4)]'
p369
(lp370
F5766.0
aI11420
aF0.5049036777583188
asS'[(11, 3), (5, 2)]'
p371
(lp372
F5245.0
aI11251
aF0.4661807839303173
asS'[(6, 2), (11, 3)]'
p373
(lp374
F5595.0
aI11372
aF0.49199788955328877
asS'[(9, 1), (9, 3)]'
p375
(lp376
F8316.5
aI11402
aF0.7293895807753026
asS'[(2, 1), (12, 4)]'
p377
(lp378
F5159.5
aI11223
aF0.45972556357480177
asS'[(11, 1), (2, 3)]'
p379
(lp380
F4909.5
aI11193
aF0.4386223532564996
asS'[(11, 2), (2, 2)]'
p381
(lp382
F5216.0
aI11342
aF0.4598836184094516
asS'[(8, 3), (11, 3)]'
p383
(lp384
F6276.0
aI11325
aF0.5541721854304635
asS'[(7, 2), (2, 4)]'
p385
(lp386
F3974.0
aI11332
aF0.35068831627250263
asS'[(10, 1), (4, 2)]'
p387
(lp388
F4860.5
aI11419
aF0.4256502320693581
asS'[(2, 1), (11, 1)]'
p389
(lp390
F5217.0
aI11191
aF0.4661781788937539
asS'[(12, 3), (6, 4)]'
p391
(lp392
F5806.5
aI11266
aF0.5154003195455352
asS'[(2, 1), (9, 3)]'
p393
(lp394
F4458.5
aI11496
aF0.38783054975643705
asS'[(4, 4), (7, 4)]'
p395
(lp396
F4855.5
aI11374
aF0.4268946720590821
asS'[(10, 4), (14, 2)]'
p397
(lp398
F7213.5
aI11409
aF0.6322640021036025
asS'[(14, 1), (4, 2)]'
p399
(lp400
F6107.0
aI11200
aF0.5452678571428572
asS'[(14, 2), (4, 2)]'
p401
(lp402
F6418.5
aI11486
aF0.5588107261013407
asS'[(4, 4), (7, 1)]'
p403
(lp404
F4416.5
aI11421
aF0.38669993870939495
asS'[(11, 4), (9, 3)]'
p405
(lp406
F6023.5
aI10995
aF0.5478399272396544
asS'[(5, 4), (8, 2)]'
p407
(lp408
F4785.5
aI11369
aF0.4209253232474272
asS'[(8, 4), (14, 1)]'
p409
(lp410
F6718.0
aI11205
aF0.599553770638108
asS'[(4, 3), (11, 1)]'
p411
(lp412
F5245.0
aI11435
aF0.4586794927853083
asS'[(11, 1), (8, 4)]'
p413
(lp414
F5942.5
aI11347
aF0.5237067066184895
asS'[(8, 3), (11, 1)]'
p415
(lp416
F5891.5
aI11254
aF0.5235027545761507
asS'[(8, 4), (6, 2)]'
p417
(lp418
F5071.0
aI11491
aF0.44130188843442697
asS'[(12, 2), (7, 2)]'
p419
(lp420
F6184.5
aI11250
aF0.5497333333333333
asS'[(7, 3), (8, 1)]'
p421
(lp422
F5309.5
aI11480
aF0.4625
asS'[(14, 3), (13, 3)]'
p423
(lp424
F7524.0
aI11218
aF0.670707791050098
asS'[(13, 4), (8, 2)]'
p425
(lp426
F6398.0
aI11343
aF0.5640483117341092
asS'[(14, 4), (8, 2)]'
p427
(lp428
F6980.0
aI11568
aF0.6033886583679114
asS'[(11, 2), (2, 4)]'
p429
(lp430
F4933.5
aI11397
aF0.43287707291392474
asS'[(14, 3), (10, 1)]'
p431
(lp432
F7120.0
aI11230
aF0.6340160284951024
asS'[(11, 4), (11, 1)]'
p433
(lp434
F8851.0
aI11286
aF0.7842459684564947
asS'[(11, 1), (11, 2)]'
p435
(lp436
F8821.0
aI11306
aF0.7802052007783478
asS'[(3, 1), (9, 3)]'
p437
(lp438
F4484.0
aI11366
aF0.3945099419320781
asS'[(7, 4), (6, 2)]'
p439
(lp440
F4971.0
aI11383
aF0.43670385662830535
asS'[(2, 1), (10, 4)]'
p441
(lp442
F4613.0
aI11277
aF0.4090626939788951
asS'[(13, 4), (14, 1)]'
p443
(lp444
F7450.0
aI11351
aF0.6563298387807242
asS'[(8, 4), (13, 1)]'
p445
(lp446
F6325.0
aI11218
aF0.5638259939383135
asS'[(4, 3), (8, 2)]'
p447
(lp448
F4476.5
aI11309
aF0.395835175523919
asS'[(12, 1), (13, 2)]'
p449
(lp450
F7028.5
aI11378
aF0.617727192828265
asS'[(11, 1), (7, 1)]'
p451
(lp452
F5871.5
aI11135
aF0.5273013022002694
asS'[(2, 3), (6, 2)]'
p453
(lp454
F3887.0
aI11375
aF0.3417142857142857
asS'[(11, 2), (3, 4)]'
p455
(lp456
F5019.0
aI11480
aF0.4371951219512195
asS'[(9, 4), (10, 4)]'
p457
(lp458
F6337.5
aI11393
aF0.5562626173966471
asS'[(2, 3), (13, 3)]'
p459
(lp460
F5749.0
aI11140
aF0.5160682226211849
asS'[(10, 4), (5, 3)]'
p461
(lp462
F5046.0
aI11372
aF0.4437214210341189
asS'[(11, 2), (10, 1)]'
p463
(lp464
F6352.0
aI11268
aF0.5637202697905573
asS'[(13, 1), (6, 2)]'
p465
(lp466
F6151.5
aI11505
aF0.5346805736636245
asS'[(14, 4), (14, 3)]'
p467
(lp468
F9727.0
aI11208
aF0.8678622412562456
asS'[(3, 1), (4, 4)]'
p469
(lp470
F3780.5
aI11348
aF0.33314240394783223
asS'[(10, 1), (7, 1)]'
p471
(lp472
F5821.0
aI11262
aF0.5168708932694015
asS'[(3, 3), (7, 2)]'
p473
(lp474
F4005.0
aI11177
aF0.3583251319674331
asS'[(3, 3), (13, 3)]'
p475
(lp476
F5950.0
aI11375
aF0.5230769230769231
asS'[(2, 1), (3, 3)]'
p477
(lp478
F3464.0
aI11204
aF0.3091752945376651
asS'[(9, 3), (13, 3)]'
p479
(lp480
F6717.5
aI11117
aF0.6042547449851579
asS'[(5, 2), (12, 2)]'
p481
(lp482
F6152.0
aI11473
aF0.536215462389959
asS'[(14, 1), (10, 2)]'
p483
(lp484
F7154.5
aI11308
aF0.6326936681995048
asS'[(14, 1), (7, 1)]'
p485
(lp486
F6907.5
aI11446
aF0.6034859339507251
asS'[(9, 2), (10, 1)]'
p487
(lp488
F6007.5
aI11291
aF0.5320609334868479
asS'[(8, 1), (4, 1)]'
p489
(lp490
F4910.5
aI11337
aF0.4331392784687307
asS'[(3, 4), (7, 1)]'
p491
(lp492
F4131.5
aI11225
aF0.36806236080178173
asS'[(4, 2), (13, 2)]'
p493
(lp494
F5982.0
aI11251
aF0.5316860723491246
asS'[(14, 2), (8, 3)]'
p495
(lp496
F6598.5
aI11221
aF0.5880491934765173
asS'[(10, 2), (8, 4)]'
p497
(lp498
F5698.0
aI11162
aF0.5104819924744669
asS'[(2, 4), (14, 3)]'
p499
(lp500
F5924.0
aI11321
aF0.5232753290345376
asS'[(2, 3), (4, 3)]'
p501
(lp502
F3945.0
aI11204
aF0.3521063905747947
asS'[(11, 1), (10, 3)]'
p503
(lp504
F6274.0
aI11270
aF0.5566992014196983
asS'[(12, 3), (3, 3)]'
p505
(lp506
F5606.0
aI11228
aF0.49928749554684715
asS'[(6, 3), (5, 2)]'
p507
(lp508
F4609.0
aI11149
aF0.4134003049600861
asS'[(6, 2), (10, 3)]'
p509
(lp510
F5395.5
aI11375
aF0.4743296703296703
asS'[(6, 4), (3, 1)]'
p511
(lp512
F4027.5
aI11163
aF0.360790110185434
asS'[(6, 4), (5, 2)]'
p513
(lp514
F4541.0
aI11188
aF0.4058813013943511
asS'[(9, 1), (14, 1)]'
p515
(lp516
F7065.5
aI11393
aF0.6201615026770824
asS'[(10, 2), (11, 3)]'
p517
(lp518
F6508.5
aI11413
aF0.5702707438885481
asS'[(10, 4), (13, 2)]'
p519
(lp520
F6810.0
aI11341
aF0.6004761484877876
asS'[(9, 1), (8, 4)]'
p521
(lp522
F5555.5
aI11282
aF0.4924215564616203
asS'[(14, 4), (2, 3)]'
p523
(lp524
F5769.0
aI11264
aF0.5121626420454546
asS'[(4, 3), (12, 3)]'
p525
(lp526
F5774.5
aI11232
aF0.5141114672364673
asS'[(3, 2), (11, 3)]'
p527
(lp528
F5083.0
aI11347
aF0.4479598131664757
asS'[(9, 3), (5, 1)]'
p529
(lp530
F4906.5
aI11286
aF0.43474215842636893
asS'[(3, 1), (4, 1)]'
p531
(lp532
F4233.0
aI11341
aF0.3732475090380037
asS'[(3, 2), (9, 2)]'
p533
(lp534
F4794.0
aI11341
aF0.42271404638038973
asS'[(6, 2), (2, 3)]'
p535
(lp536
F3827.5
aI11314
aF0.3382976842849567
asS'[(2, 3), (9, 4)]'
p537
(lp538
F4470.0
aI11325
aF0.39470198675496687
asS'[(10, 4), (10, 2)]'
p539
(lp540
F8484.0
aI11257
aF0.7536643866038909
asS'[(3, 4), (9, 4)]'
p541
(lp542
F4890.0
aI11229
aF0.4354795618487844
asS'[(10, 1), (13, 1)]'
p543
(lp544
F7138.0
aI11398
aF0.6262502193367258
asS'[(10, 2), (7, 1)]'
p545
(lp546
F5587.5
aI11410
aF0.48970201577563544
asS'[(8, 3), (14, 3)]'
p547
(lp548
F6986.0
aI11384
aF0.6136683063949403
asS'[(7, 4), (7, 1)]'
p549
(lp550
F7369.0
aI11201
aF0.6578876885992322
asS'[(13, 4), (10, 1)]'
p551
(lp552
F6758.5
aI11267
aF0.5998491168900328
asS'[(2, 4), (5, 2)]'
p553
(lp554
F3694.5
aI11128
aF0.3320003594536305
asS'[(12, 1), (7, 3)]'
p555
(lp556
F5897.0
aI11267
aF0.5233868820449099
asS'[(13, 1), (2, 2)]'
p557
(lp558
F5549.0
aI11238
aF0.49377113365367503
asS'[(4, 3), (13, 1)]'
p559
(lp560
F5679.5
aI11264
aF0.5042169744318182
asS'[(8, 3), (9, 4)]'
p561
(lp562
F5534.5
aI11211
aF0.4936669342609937
asS'[(6, 2), (2, 1)]'
p563
(lp564
F4009.0
aI11512
aF0.34824530924252955
asS'[(14, 4), (6, 4)]'
p565
(lp566
F6665.5
aI11305
aF0.5896063688633348
asS'[(10, 2), (12, 1)]'
p567
(lp568
F6588.5
aI11260
aF0.5851243339253996
asS'[(2, 4), (10, 2)]'
p569
(lp570
F4589.0
aI11196
aF0.4098785280457306
asS'[(4, 1), (8, 3)]'
p571
(lp572
F4521.5
aI11267
aF0.4013046951273631
asS'[(14, 2), (3, 2)]'
p573
(lp574
F6260.5
aI11448
aF0.5468640810621943
asS'[(7, 1), (13, 2)]'
p575
(lp576
F6305.0
aI11383
aF0.5538961609417552
asS'[(9, 3), (2, 3)]'
p577
(lp578
F4773.0
aI11359
aF0.4201954397394137
asS'[(7, 2), (4, 1)]'
p579
(lp580
F4296.0
aI11178
aF0.3843263553408481
asS'[(8, 1), (5, 2)]'
p581
(lp582
F4840.5
aI11390
aF0.4249780509218613
asS'[(13, 4), (4, 1)]'
p583
(lp584
F5700.5
aI11247
aF0.5068462701164755
asS'[(8, 4), (14, 3)]'
p585
(lp586
F6827.0
aI11374
aF0.6002285915245297
asS'[(5, 2), (3, 2)]'
p587
(lp588
F4331.0
aI11347
aF0.3816867894597691
asS'[(12, 2), (2, 2)]'
p589
(lp590
F5661.5
aI11512
aF0.4917911744266852
asS'[(2, 1), (10, 2)]'
p591
(lp592
F4590.0
aI11219
aF0.4091273732061681
asS'[(13, 4), (11, 2)]'
p593
(lp594
F7016.0
aI11376
aF0.6167369901547117
asS'[(10, 1), (8, 2)]'
p595
(lp596
F5660.5
aI11308
aF0.5005748142907676
asS'[(5, 3), (8, 2)]'
p597
(lp598
F4652.0
aI11370
aF0.40914687774846087
asS'[(13, 3), (11, 4)]'
p599
(lp600
F6948.0
aI11370
aF0.6110817941952507
asS'[(6, 1), (13, 2)]'
p601
(lp602
F6160.5
aI11320
aF0.544213780918728
asS'[(12, 1), (9, 1)]'
p603
(lp604
F6496.5
aI11093
aF0.5856395925358334
asS'[(11, 2), (14, 4)]'
p605
(lp606
F7301.5
aI11402
aF0.6403701105069286
asS'[(9, 4), (6, 4)]'
p607
(lp608
F5445.5
aI11331
aF0.4805842379313388
asS'[(2, 3), (9, 2)]'
p609
(lp610
F4304.5
aI11130
aF0.3867475292003594
asS'[(11, 2), (11, 4)]'
p611
(lp612
F8708.0
aI11165
aF0.7799373040752351
asS'[(4, 3), (9, 4)]'
p613
(lp614
F4658.5
aI11290
aF0.41262178919397696
asS'[(7, 2), (6, 4)]'
p615
(lp616
F4956.5
aI11424
aF0.4338672969187675
asS'[(7, 3), (6, 3)]'
p617
(lp618
F5238.0
aI11226
aF0.4665954035275254
asS'[(3, 3), (11, 2)]'
p619
(lp620
F4941.0
aI11292
aF0.43756641870350693
asS'[(5, 4), (9, 3)]'
p621
(lp622
F4890.5
aI11306
aF0.4325579338404387
asS'[(7, 2), (2, 1)]'
p623
(lp624
F3821.0
aI11236
aF0.3400676397294411
asS'[(2, 2), (3, 4)]'
p625
(lp626
F3536.5
aI11395
aF0.3103554190434401
asS'[(9, 2), (4, 2)]'
p627
(lp628
F4781.0
aI11059
aF0.43231756940048827
asS'[(6, 2), (11, 4)]'
p629
(lp630
F5477.0
aI11270
aF0.485980479148181
asS'[(8, 1), (9, 2)]'
p631
(lp632
F5605.0
aI11335
aF0.4944861049845611
asS'[(14, 3), (9, 4)]'
p633
(lp634
F6748.0
aI11136
aF0.6059626436781609
asS'[(13, 3), (4, 3)]'
p635
(lp636
F6163.0
aI11401
aF0.5405666169634242
asS'[(11, 3), (6, 3)]'
p637
(lp638
F6002.0
aI11402
aF0.5263988773899316
asS'[(14, 1), (12, 2)]'
p639
(lp640
F7219.0
aI11133
aF0.64843258780203
asS'[(11, 3), (8, 4)]'
p641
(lp642
F6006.5
aI11505
aF0.5220773576705781
asS'[(13, 1), (14, 2)]'
p643
(lp644
F7383.5
aI11363
aF0.6497843879257238
asS'[(3, 3), (3, 2)]'
p645
(lp646
F6092.0
aI11222
aF0.5428622348957405
asS'[(13, 2), (7, 4)]'
p647
(lp648
F6310.5
aI11351
aF0.5559422077350014
asS'[(9, 4), (5, 2)]'
p649
(lp650
F5054.0
aI11455
aF0.44120471409864687
asS'[(6, 1), (12, 3)]'
p651
(lp652
F5782.0
aI11328
aF0.5104166666666666
asS'[(12, 3), (11, 1)]'
p653
(lp654
F6589.5
aI11117
aF0.592740847350904
asS'[(14, 2), (2, 4)]'
p655
(lp656
F5839.0
aI11420
aF0.5112959719789842
asS'[(8, 4), (3, 4)]'
p657
(lp658
F4623.5
aI11261
aF0.4105763253707486
asS'[(8, 3), (3, 3)]'
p659
(lp660
F4604.0
aI11240
aF0.4096085409252669
asS'[(3, 1), (3, 3)]'
p661
(lp662
F6189.5
aI11265
aF0.549445184198846
asS'[(2, 3), (7, 3)]'
p663
(lp664
F4354.5
aI11334
aF0.38419798835362623
asS'[(6, 3), (3, 3)]'
p665
(lp666
F4461.5
aI11323
aF0.39402101916453236
asS'[(6, 2), (4, 4)]'
p667
(lp668
F4409.0
aI11373
aF0.3876725578123626
asS'[(4, 2), (3, 4)]'
p669
(lp670
F3767.0
aI11338
aF0.33224554595166694
asS'[(6, 2), (3, 2)]'
p671
(lp672
F4470.0
aI11287
aF0.39603083193053956
asS'[(6, 1), (9, 2)]'
p673
(lp674
F5344.5
aI11544
aF0.46296777546777546
asS'[(14, 1), (6, 4)]'
p675
(lp676
F6355.0
aI11181
aF0.5683749217422414
asS'[(10, 2), (9, 3)]'
p677
(lp678
F5921.0
aI11301
aF0.52393593487302
asS'[(7, 4), (14, 1)]'
p679
(lp680
F6618.0
aI11318
aF0.5847322848559816
asS'[(8, 1), (13, 1)]'
p681
(lp682
F6678.5
aI11332
aF0.5893487469114014
asS'[(8, 4), (10, 2)]'
p683
(lp684
F5785.5
aI11254
aF0.5140838812866536
asS'[(11, 2), (14, 2)]'
p685
(lp686
F7418.5
aI11278
aF0.6577850682745168
asS'[(4, 4), (9, 2)]'
p687
(lp688
F4536.5
aI11232
aF0.40389066951566954
asS'[(8, 4), (4, 4)]'
p689
(lp690
F4928.0
aI11381
aF0.433002372375011
asS'[(14, 2), (6, 3)]'
p691
(lp692
F6517.0
aI11362
aF0.5735785953177257
asS'[(12, 2), (11, 2)]'
p693
(lp694
F7004.5
aI11430
aF0.612817147856518
asS'[(7, 3), (8, 4)]'
p695
(lp696
F5216.5
aI11258
aF0.46335938887901934
asS'[(11, 3), (8, 2)]'
p697
(lp698
F6071.5
aI11299
aF0.5373484379148598
asS'[(3, 3), (4, 2)]'
p699
(lp700
F3727.5
aI11199
aF0.3328422180551835
asS'[(14, 1), (12, 4)]'
p701
(lp702
F7389.5
aI11445
aF0.645653123634775
asS'[(5, 2), (11, 1)]'
p703
(lp704
F5369.0
aI11368
aF0.4722906403940887
asS'[(13, 1), (14, 4)]'
p705
(lp706
F7481.0
aI11430
aF0.6545056867891513
asS'[(10, 3), (9, 3)]'
p707
(lp708
F6255.5
aI11260
aF0.555550621669627
asS'[(13, 1), (10, 1)]'
p709
(lp710
F6991.0
aI11118
aF0.6288001439107753
asS'[(11, 2), (14, 3)]'
p711
(lp712
F7143.5
aI11252
aF0.6348649129043725
asS'[(4, 4), (2, 4)]'
p713
(lp714
F4009.0
aI11244
aF0.3565457132692992
asS'[(5, 3), (12, 3)]'
p715
(lp716
F5903.0
aI11267
aF0.5239194106683234
asS'[(3, 1), (2, 4)]'
p717
(lp718
F3475.5
aI11237
aF0.3092907359615556
asS'[(9, 1), (13, 3)]'
p719
(lp720
F6687.5
aI11329
aF0.5902992320593168
asS'[(9, 4), (13, 1)]'
p721
(lp722
F6562.5
aI11343
aF0.5785506479767257
asS'[(10, 4), (9, 1)]'
p723
(lp724
F6012.5
aI11381
aF0.5282927686495036
asS'[(3, 4), (3, 3)]'
p725
(lp726
F6251.0
aI11348
aF0.550845964046528
asS'[(9, 4), (5, 4)]'
p727
(lp728
F5283.5
aI11311
aF0.46711166121474673
asS'[(14, 1), (2, 3)]'
p729
(lp730
F5821.5
aI11240
aF0.5179270462633452
asS'[(7, 2), (5, 4)]'
p731
(lp732
F4721.5
aI11430
aF0.41307961504811896
asS'[(7, 4), (4, 4)]'
p733
(lp734
F4744.0
aI11152
aF0.4253945480631277
asS'[(9, 1), (9, 2)]'
p735
(lp736
F8066.5
aI11131
aF0.7246878088222083
asS'[(4, 3), (7, 3)]'
p737
(lp738
F4751.0
aI11251
aF0.42227357568216156
asS'[(5, 3), (11, 4)]'
p739
(lp740
F5388.0
aI11300
aF0.4768141592920354
asS'[(7, 3), (8, 2)]'
p741
(lp742
F5130.5
aI11294
aF0.45426775278909154
asS'[(2, 4), (2, 2)]'
p743
(lp744
F5778.0
aI11099
aF0.5205874403099379
asS'[(14, 2), (11, 4)]'
p745
(lp746
F7311.0
aI11430
aF0.6396325459317586
asS'[(12, 3), (10, 1)]'
p747
(lp748
F6731.0
aI11366
aF0.5922048213971494
asS'[(3, 3), (6, 1)]'
p749
(lp750
F4043.0
aI11239
aF0.3597295133018952
asS'[(8, 2), (12, 4)]'
p751
(lp752
F6126.5
aI11410
aF0.5369412795793164
asS'[(9, 4), (2, 3)]'
p753
(lp754
F4359.0
aI11280
aF0.38643617021276594
asS'[(13, 2), (13, 1)]'
p755
(lp756
F9380.0
aI11290
aF0.8308237378210807
asS'[(13, 2), (13, 4)]'
p757
(lp758
F9512.0
aI11326
aF0.8398375419389016
asS'[(9, 2), (14, 2)]'
p759
(lp760
F7096.5
aI11326
aF0.626567190535052
asS'[(10, 2), (10, 4)]'
p761
(lp762
F8600.0
aI11378
aF0.7558446124099139
asS'[(12, 1), (10, 1)]'
p763
(lp764
F6871.5
aI11329
aF0.6065407361638273
asS'[(4, 4), (10, 2)]'
p765
(lp766
F4884.5
aI11426
aF0.427489935235428
asS'[(14, 4), (7, 3)]'
p767
(lp768
F6583.5
aI11373
aF0.5788710102875231
asS'[(12, 4), (8, 1)]'
p769
(lp770
F6099.0
aI11304
aF0.5395435244161358
asS'[(3, 1), (7, 2)]'
p771
(lp772
F4112.0
aI11250
aF0.3655111111111111
asS'[(11, 4), (2, 2)]'
p773
(lp774
F4908.5
aI11279
aF0.43518928983065874
asS'[(7, 4), (3, 4)]'
p775
(lp776
F4449.0
aI11103
aF0.4007025128343691
asS'[(14, 2), (3, 4)]'
p777
(lp778
F5873.5
aI11208
aF0.5240453247680228
asS'[(10, 1), (3, 4)]'
p779
(lp780
F4747.5
aI11371
aF0.4175094538738897
asS'[(12, 3), (12, 4)]'
p781
(lp782
F9265.5
aI11436
aF0.8102046169989506
asS'[(10, 2), (8, 1)]'
p783
(lp784
F5743.5
aI11506
aF0.4991743438206153
asS'[(3, 1), (2, 2)]'
p785
(lp786
F3437.0
aI11246
aF0.30561977592032724
asS'[(6, 3), (13, 4)]'
p787
(lp788
F6133.0
aI11239
aF0.5456891182489545
asS'[(3, 3), (14, 1)]'
p789
(lp790
F5880.0
aI11276
aF0.5214615111741753
asS'[(8, 1), (14, 1)]'
p791
(lp792
F6902.0
aI11165
aF0.6181818181818182
asS'[(7, 1), (8, 2)]'
p793
(lp794
F5245.0
aI11377
aF0.46101784301661247
asS'[(4, 2), (7, 3)]'
p795
(lp796
F4237.5
aI11147
aF0.3801471247869382
asS'[(7, 4), (10, 2)]'
p797
(lp798
F5487.5
aI11256
aF0.4875177683013504
asS'[(10, 3), (11, 2)]'
p799
(lp800
F6455.5
aI11485
aF0.562080975185024
asS'[(7, 4), (3, 1)]'
p801
(lp802
F4124.0
aI11431
aF0.3607733356661709
asS'[(12, 1), (11, 4)]'
p803
(lp804
F6859.0
aI11428
aF0.6001925096254813
asS'[(6, 4), (5, 4)]'
p805
(lp806
F5129.0
aI11582
aF0.44284234156449664
asS'[(5, 2), (13, 4)]'
p807
(lp808
F5936.5
aI11279
aF0.5263321216419895
asS'[(10, 2), (8, 3)]'
p809
(lp810
F5781.5
aI11177
aF0.5172676031135367
asS'[(4, 3), (11, 4)]'
p811
(lp812
F5252.0
aI11324
aF0.4637937124690922
asS'[(13, 3), (8, 3)]'
p813
(lp814
F6657.5
aI11392
aF0.5844013342696629
asS'[(2, 1), (3, 4)]'
p815
(lp816
F3512.0
aI11448
aF0.30677847658979734
asS'[(2, 4), (3, 4)]'
p817
(lp818
F3882.5
aI11178
aF0.3473340490248703
asS'[(9, 2), (10, 2)]'
p819
(lp820
F6442.0
aI11508
aF0.5597844977407022
asS'[(13, 1), (11, 3)]'
p821
(lp822
F7001.0
aI11402
aF0.6140150850727942
asS'[(3, 3), (2, 4)]'
p823
(lp824
F3579.0
aI11350
aF0.31533039647577094
asS'[(11, 4), (5, 4)]'
p825
(lp826
F5815.0
aI11487
aF0.5062244276138244
asS'[(6, 3), (10, 1)]'
p827
(lp828
F5263.0
aI11190
aF0.4703306523681859
asS'[(6, 4), (2, 3)]'
p829
(lp830
F4023.0
aI11289
aF0.3563646027106032
asS'[(12, 1), (14, 2)]'
p831
(lp832
F7280.5
aI11409
aF0.6381365588570427
asS'[(8, 4), (12, 4)]'
p833
(lp834
F6480.5
aI11348
aF0.5710697920338386
asS'[(13, 1), (3, 3)]'
p835
(lp836
F5762.0
aI11528
aF0.4998265093684941
asS'[(8, 4), (6, 1)]'
p837
(lp838
F4966.0
aI11187
aF0.4439081076249218
asS'[(13, 4), (9, 1)]'
p839
(lp840
F6741.5
aI11586
aF0.5818660452269981
asS'[(13, 3), (10, 1)]'
p841
(lp842
F6940.0
aI11336
aF0.6122088920254057
asS'[(10, 4), (13, 1)]'
p843
(lp844
F6646.5
aI11001
aF0.6041723479683665
asS'[(7, 2), (3, 1)]'
p845
(lp846
F4140.5
aI11199
aF0.36972051075988926
asS'[(7, 4), (12, 4)]'
p847
(lp848
F6379.0
aI11481
aF0.5556136225067503
asS'[(13, 2), (4, 2)]'
p849
(lp850
F6041.5
aI11273
aF0.535926550164109
asS'[(4, 3), (12, 4)]'
p851
(lp852
F5378.0
aI11373
aF0.4728743515343357
asS'[(9, 3), (6, 2)]'
p853
(lp854
F5150.0
aI11148
aF0.4619662719770362
asS'[(6, 2), (2, 4)]'
p855
(lp856
F3936.0
aI11229
aF0.35052097248196634
asS'[(14, 2), (13, 1)]'
p857
(lp858
F7428.5
aI11279
aF0.6586133522475397
asS'[(14, 4), (6, 1)]'
p859
(lp860
F6478.5
aI11432
aF0.5666987403778866
asS'[(10, 2), (12, 4)]'
p861
(lp862
F6588.5
aI11392
aF0.578344452247191
asS'[(3, 2), (12, 2)]'
p863
(lp864
F5553.0
aI11280
aF0.4922872340425532
asS'[(4, 4), (11, 3)]'
p865
(lp866
F5259.5
aI11506
aF0.4571093342603859
asS'[(3, 4), (13, 2)]'
p867
(lp868
F5619.0
aI11315
aF0.4965974370304905
asS'[(9, 2), (6, 3)]'
p869
(lp870
F5137.5
aI11343
aF0.45292250727320815
asS'[(5, 1), (12, 1)]'
p871
(lp872
F5847.5
aI11331
aF0.5160621304386197
asS'[(7, 2), (9, 2)]'
p873
(lp874
F5747.5
aI11360
aF0.5059419014084507
asS'[(13, 3), (6, 2)]'
p875
(lp876
F6161.5
aI11525
aF0.5346203904555314
asS'[(6, 2), (13, 2)]'
p877
(lp878
F6316.0
aI11338
aF0.5570647380490387
asS'[(11, 3), (4, 2)]'
p879
(lp880
F5216.0
aI11289
aF0.4620426964301532
asS'[(8, 2), (10, 2)]'
p881
(lp882
F6048.0
aI11213
aF0.5393739409613841
asS'[(3, 2), (14, 2)]'
p883
(lp884
F6184.5
aI11204
aF0.5519903605855052
asS'[(10, 4), (12, 4)]'
p885
(lp886
F6839.0
aI11227
aF0.6091564977286897
asS'[(12, 3), (14, 4)]'
p887
(lp888
F7339.0
aI11395
aF0.6440544098288723
asS'[(14, 4), (6, 3)]'
p889
(lp890
F6430.5
aI11383
aF0.5649213739787402
asS'[(13, 4), (7, 3)]'
p891
(lp892
F6258.0
aI11301
aF0.5537563047517918
asS'[(5, 2), (13, 2)]'
p893
(lp894
F6241.0
aI11243
aF0.555100951703282
asS'[(12, 4), (12, 2)]'
p895
(lp896
F9091.0
aI11233
aF0.8093118490162913
asS'[(12, 3), (11, 4)]'
p897
(lp898
F6843.0
aI11484
aF0.5958725182863114
asS'[(6, 2), (2, 2)]'
p899
(lp900
F4347.5
aI11429
aF0.38039198530055124
asS'[(12, 1), (6, 4)]'
p901
(lp902
F5614.0
aI11016
aF0.5096223674655047
asS'[(11, 2), (5, 4)]'
p903
(lp904
F5343.0
aI11212
aF0.4765429896539422
asS'[(3, 1), (5, 4)]'
p905
(lp906
F3989.5
aI11523
aF0.34622060227371343
asS'[(5, 3), (12, 1)]'
p907
(lp908
F5613.5
aI11233
aF0.499732929760527
asS'[(6, 4), (5, 1)]'
p909
(lp910
F4697.0
aI11429
aF0.4109720885466795
asS'[(10, 3), (4, 4)]'
p911
(lp912
F4786.0
aI11295
aF0.4237273129703409
asS'[(9, 4), (9, 3)]'
p913
(lp914
F8292.5
aI11269
aF0.735868311296477
asS'[(10, 1), (7, 2)]'
p915
(lp916
F5455.5
aI11300
aF0.482787610619469
asS'[(4, 2), (14, 3)]'
p917
(lp918
F6123.0
aI11332
aF0.5403282739145782
asS'[(7, 4), (13, 2)]'
p919
(lp920
F6247.5
aI11324
aF0.5517043447545037
asS'[(13, 4), (4, 2)]'
p921
(lp922
F5645.5
aI11140
aF0.5067773788150808
asS'[(2, 2), (9, 3)]'
p923
(lp924
F4399.5
aI11303
aF0.3892329470052199
asS'[(13, 3), (5, 2)]'
p925
(lp926
F5961.5
aI11380
aF0.5238576449912127
asS'[(5, 3), (5, 1)]'
p927
(lp928
F7003.5
aI11455
aF0.6113924050632912
asS'[(6, 3), (5, 1)]'
p929
(lp930
F4594.0
aI11305
aF0.4063688633348076
asS'[(14, 3), (5, 2)]'
p931
(lp932
F6273.0
aI11335
aF0.5534186149095721
asS'[(5, 4), (5, 2)]'
p933
(lp934
F7003.5
aI11349
aF0.6171028284430347
asS'[(10, 3), (3, 1)]'
p935
(lp936
F4643.0
aI11084
aF0.418892096715987
asS'[(5, 3), (9, 4)]'
p937
(lp938
F4882.0
aI11364
aF0.4296022527279127
asS'[(9, 1), (7, 3)]'
p939
(lp940
F5476.0
aI11423
aF0.4793836995535323
asS'[(3, 3), (11, 4)]'
p941
(lp942
F4958.0
aI11183
aF0.4433515156934633
asS'[(13, 4), (7, 1)]'
p943
(lp944
F6264.5
aI11241
aF0.557290276665777
asS'[(9, 1), (13, 1)]'
p945
(lp946
F6695.5
aI11137
aF0.6011942174732873
asS'[(12, 2), (8, 1)]'
p947
(lp948
F6103.5
aI11364
aF0.537090813093981
asS'[(13, 2), (4, 4)]'
p949
(lp950
F5589.0
aI11209
aF0.49861718262110805
asS'[(3, 3), (5, 4)]'
p951
(lp952
F3970.5
aI11304
aF0.35124734607218683
asS'[(12, 4), (13, 2)]'
p953
(lp954
F7036.0
aI11362
aF0.6192571730329167
asS'[(3, 4), (12, 3)]'
p955
(lp956
F5183.0
aI11122
aF0.46601330695918003
asS'[(8, 3), (2, 3)]'
p957
(lp958
F4527.0
aI11390
aF0.3974539069359087
asS'[(9, 1), (10, 3)]'
p959
(lp960
F6041.5
aI11523
aF0.5242992276316931
asS'[(9, 4), (6, 3)]'
p961
(lp962
F5189.5
aI11524
aF0.45032106907323843
asS'[(4, 3), (6, 1)]'
p963
(lp964
F4397.5
aI11209
aF0.39231867249531627
asS'[(7, 3), (14, 4)]'
p965
(lp966
F6530.5
aI11220
aF0.5820409982174688
asS'[(5, 2), (2, 4)]'
p967
(lp968
F3703.0
aI11096
aF0.3337238644556597
asS'[(4, 1), (2, 2)]'
p969
(lp970
F3643.5
aI11275
aF0.32314855875831483
asS'[(5, 3), (13, 2)]'
p971
(lp972
F5818.0
aI11072
aF0.5254696531791907
asS'[(7, 3), (11, 1)]'
p973
(lp974
F5756.5
aI11364
aF0.5065557902147131
asS'[(5, 2), (7, 1)]'
p975
(lp976
F4565.0
aI11094
aF0.41148368487470705
asS'[(7, 1), (14, 4)]'
p977
(lp978
F6754.5
aI11607
aF0.581933316102352
asS'[(8, 1), (6, 2)]'
p979
(lp980
F4832.0
aI11104
aF0.43515850144092216
asS'[(9, 3), (12, 4)]'
p981
(lp982
F6404.0
aI11307
aF0.5663748120633236
asS'[(5, 2), (7, 4)]'
p983
(lp984
F4727.0
aI11315
aF0.417764030048608
asS'[(7, 3), (11, 4)]'
p985
(lp986
F5662.0
aI11371
aF0.49793333919620086
asS'[(2, 2), (3, 3)]'
p987
(lp988
F3706.0
aI11592
aF0.3197032436162871
asS'[(14, 3), (7, 3)]'
p989
(lp990
F6886.0
aI11396
aF0.6042471042471043
asS'[(11, 1), (9, 3)]'
p991
(lp992
F6031.5
aI11320
aF0.5328180212014134
asS'[(5, 4), (10, 1)]'
p993
(lp994
F5097.5
aI11354
aF0.44896071868944865
asS'[(7, 1), (5, 3)]'
p995
(lp996
F4559.0
aI11182
aF0.40770881774280093
asS'[(7, 2), (2, 2)]'
p997
(lp998
F4320.5
aI11178
aF0.38651816067275
asS'[(4, 4), (2, 2)]'
p999
(lp1000
F3566.5
aI11242
aF0.3172478206724782
asS'[(14, 1), (12, 1)]'
p1001
(lp1002
F7505.0
aI11275
aF0.6656319290465632
asS'[(12, 3), (14, 2)]'
p1003
(lp1004
F7218.0
aI11218
aF0.6434302014619362
asS'[(8, 2), (3, 4)]'
p1005
(lp1006
F4154.5
aI11211
aF0.3705735438408706
asS'[(13, 2), (7, 3)]'
p1007
(lp1008
F6335.5
aI11393
aF0.556087071008514
asS'[(5, 4), (4, 2)]'
p1009
(lp1010
F4148.0
aI11238
aF0.3691048229222282
asS'[(14, 1), (14, 4)]'
p1011
(lp1012
F9655.0
aI11237
aF0.8592150929963513
asS'[(7, 2), (8, 1)]'
p1013
(lp1014
F5254.5
aI11314
aF0.46442460668198693
asS'[(6, 1), (8, 4)]'
p1015
(lp1016
F5026.5
aI11285
aF0.44541426672574214
asS'[(6, 1), (4, 1)]'
p1017
(lp1018
F4808.0
aI11301
aF0.4254490753030705
asS'[(12, 1), (4, 1)]'
p1019
(lp1020
F5666.0
aI11217
aF0.5051261478113578
asS'[(11, 1), (13, 2)]'
p1021
(lp1022
F6963.5
aI11360
aF0.6129841549295775
asS'[(11, 4), (9, 1)]'
p1023
(lp1024
F6017.0
aI11369
aF0.5292461957955845
asS'[(6, 4), (11, 1)]'
p1025
(lp1026
F5502.5
aI11180
aF0.4921735241502683
asS'[(12, 1), (9, 4)]'
p1027
(lp1028
F6321.0
aI11249
aF0.5619166148102054
asS'[(14, 4), (10, 1)]'
p1029
(lp1030
F7083.0
aI11235
aF0.6304405874499333
asS'[(3, 3), (6, 4)]'
p1031
(lp1032
F4081.0
aI11349
aF0.3595911534055864
asS'[(5, 3), (9, 2)]'
p1033
(lp1034
F4923.0
aI11338
aF0.43420356323866643
asS'[(6, 1), (12, 2)]'
p1035
(lp1036
F5771.0
aI11310
aF0.5102564102564102
asS'[(14, 2), (12, 4)]'
p1037
(lp1038
F7281.0
aI11220
aF0.6489304812834225
asS'[(4, 3), (6, 3)]'
p1039
(lp1040
F4643.5
aI11066
aF0.4196186517260076
asS'[(14, 3), (11, 3)]'
p1041
(lp1042
F7533.5
aI11422
aF0.6595604972859395
asS'[(8, 4), (10, 1)]'
p1043
(lp1044
F5593.5
aI11225
aF0.49830734966592427
asS'[(5, 1), (7, 4)]'
p1045
(lp1046
F4669.5
aI11228
aF0.41587994299964376
asS'[(2, 3), (11, 4)]'
p1047
(lp1048
F4962.0
aI11218
aF0.4423248350864682
asS'[(10, 1), (6, 1)]'
p1049
(lp1050
F5490.0
aI11111
aF0.4941049410494105
asS'[(9, 1), (6, 1)]'
p1051
(lp1052
F5486.5
aI11342
aF0.4837330276847117
asS'[(12, 4), (8, 2)]'
p1053
(lp1054
F6140.5
aI11326
aF0.5421596327035141
asS'[(5, 3), (7, 2)]'
p1055
(lp1056
F4814.0
aI11374
aF0.4232459996483207
asS'[(12, 4), (10, 4)]'
p1057
(lp1058
F6801.0
aI11270
aF0.6034605146406389
asS'[(5, 1), (11, 1)]'
p1059
(lp1060
F5648.5
aI11350
aF0.49766519823788546
asS'[(3, 4), (8, 3)]'
p1061
(lp1062
F4151.5
aI11181
aF0.3712995259815759
asS'[(3, 1), (14, 3)]'
p1063
(lp1064
F5917.0
aI11234
aF0.5267046466085099
asS'[(3, 4), (6, 4)]'
p1065
(lp1066
F4612.0
aI11377
aF0.4053792739738068
asS'[(4, 2), (13, 1)]'
p1067
(lp1068
F5703.0
aI11306
aF0.5044224305678401
asS'[(10, 3), (13, 1)]'
p1069
(lp1070
F6828.5
aI11434
aF0.5972100752142733
asS'[(4, 1), (12, 1)]'
p1071
(lp1072
F5799.5
aI11444
aF0.5067721076546662
asS'[(4, 4), (3, 4)]'
p1073
(lp1074
F4153.0
aI11326
aF0.3666784389899347
asS'[(5, 2), (11, 2)]'
p1075
(lp1076
F5689.5
aI11342
aF0.5016311056251103
asS'[(7, 4), (14, 2)]'
p1077
(lp1078
F6587.0
aI11326
aF0.5815822002472187
asS'[(14, 4), (10, 3)]'
p1079
(lp1080
F7091.5
aI11487
aF0.6173500478802124
asS'[(6, 4), (11, 3)]'
p1081
(lp1082
F5411.5
aI11248
aF0.48110775248933146
asS'[(10, 4), (9, 4)]'
p1083
(lp1084
F6295.0
aI11389
aF0.5527263148652208
asS'[(2, 3), (10, 3)]'
p1085
(lp1086
F4831.0
aI11020
aF0.4383847549909256
asS'[(11, 2), (13, 1)]'
p1087
(lp1088
F7060.0
aI11454
aF0.6163785577090972
asS'[(9, 1), (13, 4)]'
p1089
(lp1090
F6726.5
aI11303
aF0.5951074935857736
asS'[(10, 3), (12, 3)]'
p1091
(lp1092
F6730.0
aI11134
aF0.6044548230644872
asS'[(5, 4), (10, 4)]'
p1093
(lp1094
F5429.0
aI11396
aF0.4763952263952264
asS'[(8, 3), (3, 4)]'
p1095
(lp1096
F4264.0
aI11309
aF0.37704483155009283
asS'[(11, 1), (6, 4)]'
p1097
(lp1098
F5572.0
aI11404
aF0.4886004910557699
asS'[(3, 2), (14, 4)]'
p1099
(lp1100
F5995.0
aI11320
aF0.5295936395759717
asS'[(8, 2), (12, 3)]'
p1101
(lp1102
F5982.5
aI11228
aF0.5328197363733523
asS'[(10, 1), (3, 2)]'
p1103
(lp1104
F4775.5
aI11397
aF0.4190137755549706
asS'[(8, 2), (6, 2)]'
p1105
(lp1106
F5192.0
aI11052
aF0.4697792254795512
asS'[(6, 1), (8, 2)]'
p1107
(lp1108
F5095.5
aI11365
aF0.44835019797624287
asS'[(11, 2), (4, 3)]'
p1109
(lp1110
F5140.5
aI11325
aF0.4539072847682119
asS'[(4, 3), (10, 2)]'
p1111
(lp1112
F4914.5
aI11413
aF0.4306054499255235
asS'[(6, 3), (14, 1)]'
p1113
(lp1114
F6573.5
aI11368
aF0.5782459535538353
asS'[(9, 2), (14, 1)]'
p1115
(lp1116
F6889.0
aI11283
aF0.6105645661614819
asS'[(3, 1), (7, 1)]'
p1117
(lp1118
F4536.5
aI11414
aF0.39745049938671806
asS'[(9, 3), (8, 1)]'
p1119
(lp1120
F5779.0
aI11404
aF0.5067520168361979
asS'[(13, 4), (12, 2)]'
p1121
(lp1122
F6888.5
aI11234
aF0.6131831938757344
asS'[(3, 4), (6, 2)]'
p1123
(lp1124
F4120.0
aI11387
aF0.36181610608588743
asS'[(8, 2), (11, 3)]'
p1125
(lp1126
F5998.0
aI11380
aF0.5270650263620387
asS'[(12, 2), (7, 4)]'
p1127
(lp1128
F5951.5
aI11319
aF0.525797331919781
asS'[(3, 3), (14, 3)]'
p1129
(lp1130
F6236.0
aI11353
aF0.5492821280718753
asS'[(6, 1), (6, 2)]'
p1131
(lp1132
F7210.5
aI11316
aF0.6371951219512195
asS'[(7, 3), (3, 3)]'
p1133
(lp1134
F4478.5
aI11191
aF0.40018765079081403
asS'[(9, 3), (6, 1)]'
p1135
(lp1136
F5182.0
aI11268
aF0.45988640397586084
asS'[(6, 3), (7, 2)]'
p1137
(lp1138
F4936.0
aI11331
aF0.4356190980495985
asS'[(11, 2), (10, 4)]'
p1139
(lp1140
F6403.5
aI11351
aF0.5641353184741432
asS'[(7, 1), (13, 1)]'
p1141
(lp1142
F6646.5
aI11417
aF0.582158185162477
asS'[(8, 1), (2, 2)]'
p1143
(lp1144
F4124.0
aI11456
aF0.35998603351955305
asS'[(3, 1), (2, 1)]'
p1145
(lp1146
F3862.5
aI11154
aF0.34628832705755785
asS'[(12, 2), (3, 3)]'
p1147
(lp1148
F5200.5
aI11229
aF0.4631311781993054
asS'[(6, 1), (5, 2)]'
p1149
(lp1150
F4733.5
aI11364
aF0.4165346708905315
asS'[(11, 3), (13, 2)]'
p1151
(lp1152
F6996.5
aI11395
aF0.6139973672663449
asS'[(12, 1), (8, 2)]'
p1153
(lp1154
F6086.0
aI11264
aF0.5403053977272727
asS'[(14, 3), (10, 3)]'
p1155
(lp1156
F7254.5
aI11382
aF0.6373660165173081
asS'[(7, 4), (10, 1)]'
p1157
(lp1158
F5735.5
aI11399
aF0.5031581717694534
asS'[(9, 3), (8, 3)]'
p1159
(lp1160
F5906.0
aI11026
aF0.5356430255759115
asS'[(14, 3), (4, 3)]'
p1161
(lp1162
F6382.0
aI11280
aF0.5657801418439716
asS'[(11, 2), (8, 3)]'
p1163
(lp1164
F6045.5
aI11458
aF0.5276226217489963
asS'[(6, 4), (8, 4)]'
p1165
(lp1166
F5478.0
aI11427
aF0.4793909162509845
asS'[(9, 4), (13, 2)]'
p1167
(lp1168
F6525.5
aI11300
aF0.5774778761061947
asS'[(5, 1), (9, 2)]'
p1169
(lp1170
F4935.0
aI11180
aF0.4414132379248658
asS'[(4, 1), (12, 4)]'
p1171
(lp1172
F5404.0
aI11062
aF0.4885192551075755
asS'[(4, 3), (7, 4)]'
p1173
(lp1174
F4439.0
aI11160
aF0.39775985663082436
asS'[(10, 1), (14, 4)]'
p1175
(lp1176
F6962.5
aI11170
aF0.6233213965980304
asS'[(13, 4), (2, 1)]'
p1177
(lp1178
F5556.0
aI11434
aF0.4859191883855169
asS'[(3, 4), (14, 3)]'
p1179
(lp1180
F5957.5
aI11435
aF0.5209881941407958
asS'[(3, 3), (12, 4)]'
p1181
(lp1182
F5136.0
aI11175
aF0.4595973154362416
asS'[(9, 3), (3, 3)]'
p1183
(lp1184
F4746.5
aI11137
aF0.4261919727036006
asS'[(10, 3), (2, 4)]'
p1185
(lp1186
F4559.0
aI11348
aF0.40174480084596403
asS'[(13, 3), (10, 2)]'
p1187
(lp1188
F6901.5
aI11388
aF0.6060326659641728
asS'[(3, 4), (5, 1)]'
p1189
(lp1190
F3953.5
aI11255
aF0.3512661039537983
asS'[(11, 1), (2, 1)]'
p1191
(lp1192
F5210.0
aI11288
aF0.4615520907158044
asS'[(14, 1), (9, 4)]'
p1193
(lp1194
F6849.0
aI11150
aF0.6142600896860987
asS'[(13, 4), (9, 2)]'
p1195
(lp1196
F6769.5
aI11473
aF0.5900374792992242
asS'[(12, 1), (3, 2)]'
p1197
(lp1198
F5248.5
aI11216
aF0.46794757489301
asS'[(8, 2), (5, 2)]'
p1199
(lp1200
F5176.0
aI11346
aF0.45619601621716904
asS'[(6, 3), (7, 4)]'
p1201
(lp1202
F5051.5
aI11446
aF0.4413332168443124
asS'[(4, 4), (7, 3)]'
p1203
(lp1204
F4476.0
aI11533
aF0.38810370241914505
asS'[(11, 2), (8, 1)]'
p1205
(lp1206
F5919.0
aI11098
aF0.5333393404216976
asS'[(8, 2), (9, 1)]'
p1207
(lp1208
F5588.5
aI11458
aF0.48773782510036656
asS'[(11, 3), (14, 1)]'
p1209
(lp1210
F7379.0
aI11491
aF0.6421547297885302
asS'[(6, 3), (3, 1)]'
p1211
(lp1212
F4123.5
aI11419
aF0.36110867851825906
asS'[(8, 1), (13, 3)]'
p1213
(lp1214
F6319.5
aI11161
aF0.5662127049547532
asS'[(10, 2), (14, 3)]'
p1215
(lp1216
F6964.5
aI11336
aF0.6143701482004235
asS'[(13, 2), (10, 4)]'
p1217
(lp1218
F6843.0
aI11294
aF0.6058969364264211
asS'[(3, 4), (14, 1)]'
p1219
(lp1220
F5741.5
aI11110
aF0.5167866786678668
asS'[(6, 4), (10, 3)]'
p1221
(lp1222
F5347.5
aI11269
aF0.47453190167716747
asS'[(9, 1), (2, 3)]'
p1223
(lp1224
F4311.0
aI11203
aF0.3848076408104972
asS'[(5, 4), (13, 2)]'
p1225
(lp1226
F5971.0
aI11361
aF0.5255699322242761
asS'[(9, 2), (8, 2)]'
p1227
(lp1228
F5981.5
aI11313
aF0.5287280120215682
asS'[(10, 1), (5, 4)]'
p1229
(lp1230
F5166.0
aI11473
aF0.450274557657108
asS'[(10, 2), (4, 2)]'
p1231
(lp1232
F5329.0
aI11394
aF0.46770229945585395
asS'[(11, 2), (5, 3)]'
p1233
(lp1234
F5397.0
aI11400
aF0.47342105263157896
asS'[(13, 3), (7, 1)]'
p1235
(lp1236
F6211.5
aI11335
aF0.5479929422143802
asS'[(11, 1), (8, 3)]'
p1237
(lp1238
F5988.0
aI11454
aF0.5227867993713986
asS'[(8, 1), (7, 1)]'
p1239
(lp1240
F5476.5
aI11089
aF0.4938677969158626
asS'[(7, 1), (4, 1)]'
p1241
(lp1242
F4723.0
aI11309
aF0.4176319745335573
asS'[(6, 3), (10, 2)]'
p1243
(lp1244
F5259.5
aI11288
aF0.4659372785258682
asS'[(3, 4), (3, 2)]'
p1245
(lp1246
F6232.5
aI11475
aF0.5431372549019607
asS'[(9, 1), (6, 3)]'
p1247
(lp1248
F5186.0
aI11277
aF0.4598740799858118
asS'[(9, 2), (12, 3)]'
p1249
(lp1250
F6413.5
aI11418
aF0.5617008232615169
asS'[(3, 1), (11, 3)]'
p1251
(lp1252
F5100.5
aI11378
aF0.44827737739497275
asS'[(4, 1), (5, 3)]'
p1253
(lp1254
F4215.5
aI11185
aF0.3768886902101028
asS'[(11, 2), (3, 2)]'
p1255
(lp1256
F5435.0
aI11479
aF0.47347329906786306
asS'[(7, 1), (14, 1)]'
p1257
(lp1258
F6844.5
aI11185
aF0.6119356280733125
asS'[(2, 3), (3, 1)]'
p1259
(lp1260
F3527.0
aI11356
aF0.310584712927087
asS'[(10, 3), (12, 1)]'
p1261
(lp1262
F6612.5
aI11478
aF0.5761021083812511
asS'[(8, 2), (2, 3)]'
p1263
(lp1264
F4173.0
aI11237
aF0.37136246329091394
asS'[(11, 4), (12, 3)]'
p1265
(lp1266
F6672.0
aI11204
aF0.5955016065690825
asS'[(7, 2), (11, 3)]'
p1267
(lp1268
F5728.0
aI11080
aF0.5169675090252708
asS'[(2, 3), (3, 3)]'
p1269
(lp1270
F3920.0
aI11324
aF0.34616743200282585
asS'[(5, 3), (6, 3)]'
p1271
(lp1272
F5108.0
aI11450
aF0.4461135371179039
asS'[(5, 3), (2, 2)]'
p1273
(lp1274
F3761.5
aI11455
aF0.3283718900043649
asS'[(3, 2), (4, 2)]'
p1275
(lp1276
F4249.0
aI11466
aF0.3705738705738706
asS'[(7, 4), (12, 1)]'
p1277
(lp1278
F5956.0
aI11474
aF0.5190866306431933
asS'[(10, 1), (2, 4)]'
p1279
(lp1280
F4611.5
aI11355
aF0.40612065169528844
asS'[(13, 3), (5, 1)]'
p1281
(lp1282
F5874.5
aI11318
aF0.5190404665135183
asS'[(9, 1), (13, 2)]'
p1283
(lp1284
F6483.0
aI11178
aF0.5799785292538916
asS'[(9, 4), (9, 2)]'
p1285
(lp1286
F8123.5
aI11220
aF0.7240196078431372
asS'[(14, 2), (4, 4)]'
p1287
(lp1288
F6086.0
aI11266
aF0.5402094798508787
asS'[(5, 3), (4, 2)]'
p1289
(lp1290
F4227.0
aI11329
aF0.37311324918351135
asS'[(13, 1), (12, 1)]'
p1291
(lp1292
F7328.5
aI11317
aF0.6475656092604047
asS'[(7, 1), (14, 3)]'
p1293
(lp1294
F6520.0
aI11264
aF0.5788352272727273
asS'[(14, 3), (11, 4)]'
p1295
(lp1296
F7191.0
aI11311
aF0.6357528070020334
asS'[(5, 2), (2, 2)]'
p1297
(lp1298
F4059.5
aI11169
aF0.36346136628167247
asS'[(7, 1), (4, 3)]'
p1299
(lp1300
F4420.5
aI11321
aF0.39046903983747017
asS'[(10, 2), (3, 1)]'
p1301
(lp1302
F4788.0
aI11262
aF0.4251465103889185
asS'[(5, 3), (13, 4)]'
p1303
(lp1304
F5876.0
aI11389
aF0.5159364298884889
asS'[(6, 2), (9, 3)]'
p1305
(lp1306
F5259.5
aI11302
aF0.4653601132542913
asS'[(11, 1), (9, 4)]'
p1307
(lp1308
F6166.5
aI11263
aF0.5475006658971855
asS'[(10, 1), (10, 3)]'
p1309
(lp1310
F8564.0
aI11419
aF0.7499781066643314
asS'[(14, 3), (8, 2)]'
p1311
(lp1312
F6843.0
aI11307
aF0.60520031838684
asS'[(3, 1), (11, 1)]'
p1313
(lp1314
F5327.0
aI11337
aF0.46987739260827377
asS'[(6, 4), (13, 2)]'
p1315
(lp1316
F6166.0
aI11548
aF0.5339452719085556
asS'[(11, 4), (4, 4)]'
p1317
(lp1318
F5480.5
aI11461
aF0.4781868946863275
asS'[(12, 3), (3, 1)]'
p1319
(lp1320
F5181.5
aI11376
aF0.4554764416315049
asS'[(10, 1), (6, 4)]'
p1321
(lp1322
F5302.5
aI11215
aF0.47280427998216673
asS'[(4, 1), (11, 2)]'
p1323
(lp1324
F5179.0
aI11301
aF0.4582780284930537
asS'[(14, 2), (5, 3)]'
p1325
(lp1326
F6282.0
aI11290
aF0.5564216120460584
asS'[(5, 2), (10, 3)]'
p1327
(lp1328
F5106.0
aI11419
aF0.44714948769594537
asS'[(2, 1), (5, 3)]'
p1329
(lp1330
F3647.0
aI11158
aF0.32685069008782935
asS'[(8, 1), (3, 4)]'
p1331
(lp1332
F4259.5
aI11406
aF0.37344380150797823
asS'[(4, 3), (6, 4)]'
p1333
(lp1334
F4393.5
aI11381
aF0.386038133731658
asS'[(8, 2), (14, 4)]'
p1335
(lp1336
F6803.0
aI11392
aF0.5971734550561798
asS'[(7, 2), (9, 4)]'
p1337
(lp1338
F5309.0
aI11354
aF0.46758851506077154
asS'[(13, 2), (8, 2)]'
p1339
(lp1340
F6688.5
aI11288
aF0.5925318922749823
asS'[(14, 4), (3, 2)]'
p1341
(lp1342
F6091.5
aI11372
aF0.5356577558916638
asS'[(7, 2), (4, 4)]'
p1343
(lp1344
F4483.5
aI11460
aF0.3912303664921466
asS'[(8, 4), (11, 3)]'
p1345
(lp1346
F5943.0
aI11393
aF0.5216360923374002
asS'[(8, 3), (7, 1)]'
p1347
(lp1348
F5252.5
aI11301
aF0.4647818777099372
asS'[(8, 3), (5, 3)]'
p1349
(lp1350
F5200.0
aI11419
aF0.4553813819073474
asS'[(4, 2), (2, 2)]'
p1351
(lp1352
F4095.5
aI11370
aF0.3602022867194371
asS'[(9, 2), (5, 3)]'
p1353
(lp1354
F4879.0
aI11175
aF0.43659955257270694
asS'[(6, 1), (7, 3)]'
p1355
(lp1356
F5039.5
aI11240
aF0.4483540925266904
asS'[(11, 3), (3, 1)]'
p1357
(lp1358
F5044.5
aI11364
aF0.44390179514255546
asS'[(9, 4), (8, 4)]'
p1359
(lp1360
F5920.0
aI11210
aF0.528099910793934
asS'[(4, 3), (14, 3)]'
p1361
(lp1362
F6384.0
aI11376
aF0.5611814345991561
asS'[(2, 3), (11, 3)]'
p1363
(lp1364
F5287.5
aI11349
aF0.46590007930214117
asS'[(2, 2), (5, 4)]'
p1365
(lp1366
F3709.5
aI11359
aF0.326569240250022
asS'[(7, 2), (7, 1)]'
p1367
(lp1368
F7621.0
aI11526
aF0.6612007634912372
asS'[(10, 3), (5, 4)]'
p1369
(lp1370
F5095.5
aI11363
aF0.4484291120302737
asS'[(14, 1), (13, 3)]'
p1371
(lp1372
F7430.0
aI11271
aF0.6592139118090675
asS'[(12, 3), (9, 2)]'
p1373
(lp1374
F6382.0
aI11365
aF0.5615486141663001
asS'[(14, 2), (9, 3)]'
p1375
(lp1376
F6961.0
aI11362
aF0.6126562224960395
asS'[(11, 4), (13, 1)]'
p1377
(lp1378
F6923.5
aI11436
aF0.6054127317243791
asS'[(13, 1), (2, 4)]'
p1379
(lp1380
F5504.0
aI11287
aF0.48764064853371136
asS'[(12, 3), (5, 1)]'
p1381
(lp1382
F5573.0
aI11255
aF0.4951577076854731
asS'[(3, 2), (7, 4)]'
p1383
(lp1384
F4139.0
aI11378
aF0.363772191949376
asS'[(2, 2), (13, 2)]'
p1385
(lp1386
F5844.0
aI11381
aF0.5134873912661453
asS'[(4, 4), (5, 4)]'
p1387
(lp1388
F4610.0
aI11329
aF0.40692029305322625
asS'[(5, 3), (7, 1)]'
p1389
(lp1390
F4691.5
aI11388
aF0.41196873902353354
asS'[(6, 4), (4, 3)]'
p1391
(lp1392
F4432.5
aI11380
aF0.38949912126537783
asS'[(12, 4), (7, 1)]'
p1393
(lp1394
F6012.0
aI11480
aF0.5236933797909408
asS'[(6, 3), (6, 2)]'
p1395
(lp1396
F7189.0
aI11349
aF0.6334478808705613
asS'[(14, 2), (5, 1)]'
p1397
(lp1398
F6214.0
aI11187
aF0.5554661660856351
asS'[(13, 1), (10, 3)]'
p1399
(lp1400
F6766.0
aI11254
aF0.6012084592145015
asS'[(7, 1), (10, 2)]'
p1401
(lp1402
F5626.0
aI11540
aF0.4875216637781629
asS'[(12, 4), (2, 1)]'
p1403
(lp1404
F5136.5
aI11251
aF0.45653719669362725
asS'[(5, 4), (2, 1)]'
p1405
(lp1406
F3754.0
aI11239
aF0.334015481804431
asS'[(3, 1), (8, 1)]'
p1407
(lp1408
F4543.5
aI11259
aF0.40354383160138557
asS'[(13, 2), (9, 4)]'
p1409
(lp1410
F6610.0
aI11352
aF0.5822762508809021
asS'[(12, 1), (12, 4)]'
p1411
(lp1412
F9262.5
aI11508
aF0.8048748696558915
asS'[(2, 1), (4, 1)]'
p1413
(lp1414
F4204.5
aI11482
aF0.3661818498519422
asS'[(10, 3), (7, 1)]'
p1415
(lp1416
F5553.0
aI11328
aF0.4902012711864407
asS'[(4, 4), (3, 3)]'
p1417
(lp1418
F3845.5
aI11461
aF0.3355291859349097
asS'[(4, 2), (3, 2)]'
p1419
(lp1420
F4159.5
aI11367
aF0.3659276854051201
asS'[(10, 2), (13, 2)]'
p1421
(lp1422
F7108.0
aI11315
aF0.6281926646045073
asS'[(7, 1), (9, 3)]'
p1423
(lp1424
F5288.0
aI11238
aF0.47054636056237764
asS'[(3, 4), (10, 1)]'
p1425
(lp1426
F4726.5
aI11220
aF0.4212566844919786
asS'[(3, 1), (6, 3)]'
p1427
(lp1428
F4137.5
aI11327
aF0.3652776551602366
asS'[(10, 4), (2, 2)]'
p1429
(lp1430
F4589.5
aI11282
aF0.40679843999290904
asS'[(4, 3), (3, 1)]'
p1431
(lp1432
F3842.0
aI11291
aF0.34027101231068996
asS'[(4, 3), (5, 2)]'
p1433
(lp1434
F4272.5
aI11223
aF0.3806914372271229
asS'[(13, 3), (3, 3)]'
p1435
(lp1436
F5865.5
aI11197
aF0.5238456729481111
asS'[(3, 4), (13, 3)]'
p1437
(lp1438
F5620.0
aI11360
aF0.49471830985915494
asS'[(4, 1), (14, 4)]'
p1439
(lp1440
F6082.0
aI11263
aF0.5399982242741721
asS'[(9, 1), (3, 3)]'
p1441
(lp1442
F4477.5
aI11298
aF0.39630908125331915
asS'[(11, 3), (9, 2)]'
p1443
(lp1444
F6217.5
aI11316
aF0.5494432661717922
asS'[(8, 1), (4, 4)]'
p1445
(lp1446
F4500.5
aI11329
aF0.39725483273016154
asS'[(6, 4), (11, 2)]'
p1447
(lp1448
F5505.0
aI11404
aF0.4827253595229744
asS'[(5, 2), (14, 1)]'
p1449
(lp1450
F6301.5
aI11401
aF0.5527146741513902
asS'[(2, 4), (5, 4)]'
p1451
(lp1452
F4265.5
aI11490
aF0.3712358572671889
asS'[(14, 2), (13, 4)]'
p1453
(lp1454
F7405.5
aI11300
aF0.6553539823008849
asS'[(5, 1), (6, 4)]'
p1455
(lp1456
F4701.0
aI11554
aF0.40687207893370264
asS'[(13, 1), (8, 3)]'
p1457
(lp1458
F6260.0
aI11184
aF0.5597281831187411
asS'[(2, 3), (5, 1)]'
p1459
(lp1460
F3742.5
aI11222
aF0.33349670290500805
asS'[(13, 2), (11, 1)]'
p1461
(lp1462
F7073.0
aI11501
aF0.6149900008694896
asS'[(14, 2), (2, 2)]'
p1463
(lp1464
F6033.0
aI11141
aF0.541513329144601
asS'[(12, 1), (11, 1)]'
p1465
(lp1466
F6865.5
aI11283
aF0.6084817867588407
asS'[(6, 4), (6, 1)]'
p1467
(lp1468
F7376.5
aI11505
aF0.6411560191221208
asS'[(13, 4), (3, 2)]'
p1469
(lp1470
F5665.0
aI11430
aF0.49562554680664916
asS'[(2, 4), (4, 3)]'
p1471
(lp1472
F3665.5
aI11419
aF0.3210000875733427
asS'[(2, 4), (12, 2)]'
p1473
(lp1474
F5122.0
aI11320
aF0.45247349823321553
asS'[(14, 2), (10, 1)]'
p1475
(lp1476
F6884.0
aI11217
aF0.613711331015423
asS'[(4, 1), (14, 2)]'
p1477
(lp1478
F6127.5
aI11406
aF0.5372172540768017
asS'[(6, 3), (14, 3)]'
p1479
(lp1480
F6841.0
aI11524
aF0.5936306837903506
asS'[(12, 4), (7, 4)]'
p1481
(lp1482
F6248.0
aI11285
aF0.5536552946389012
asS'[(11, 2), (13, 2)]'
p1483
(lp1484
F7346.0
aI11519
aF0.6377289695286049
asS'[(2, 2), (12, 1)]'
p1485
(lp1486
F5283.0
aI11574
aF0.45645412130637636
asS'[(6, 4), (7, 3)]'
p1487
(lp1488
F5154.0
aI11575
aF0.4452699784017279
asS'[(8, 4), (8, 2)]'
p1489
(lp1490
F7789.0
aI11213
aF0.6946401498260947
asS'[(3, 3), (12, 3)]'
p1491
(lp1492
F5763.0
aI11554
aF0.49878829842478795
asS'[(2, 1), (2, 3)]'
p1493
(lp1494
F5921.0
aI11411
aF0.5188852861274209
asS'[(9, 1), (9, 4)]'
p1495
(lp1496
F8224.5
aI11281
aF0.729057707650031
asS'[(4, 1), (2, 3)]'
p1497
(lp1498
F3603.5
aI11543
aF0.3121805423200208
asS'[(14, 3), (8, 4)]'
p1499
(lp1500
F6763.5
aI11302
aF0.5984339055034508
asS'[(11, 2), (8, 4)]'
p1501
(lp1502
F5853.0
aI11248
aF0.5203591749644382
asS'[(9, 3), (4, 2)]'
p1503
(lp1504
F4570.5
aI11310
aF0.4041114058355438
asS'[(5, 1), (6, 1)]'
p1505
(lp1506
F4969.5
aI11120
aF0.4468974820143885
asS'[(8, 1), (7, 4)]'
p1507
(lp1508
F5149.0
aI11176
aF0.4607193987115247
asS'[(5, 1), (3, 1)]'
p1509
(lp1510
F4275.5
aI11293
aF0.37859736119720183
asS'[(3, 2), (13, 1)]'
p1511
(lp1512
F5479.0
aI11203
aF0.48906542890297244
asS'[(7, 3), (5, 2)]'
p1513
(lp1514
F4743.0
aI11401
aF0.41601613893518113
asS'[(5, 1), (10, 2)]'
p1515
(lp1516
F4931.0
aI11343
aF0.4347174468835405
asS'[(9, 2), (4, 4)]'
p1517
(lp1518
F4527.5
aI11228
aF0.403232988956181
asS'[(13, 4), (6, 3)]'
p1519
(lp1520
F6004.0
aI11138
aF0.5390554857245466
asS'[(11, 1), (5, 3)]'
p1521
(lp1522
F5428.5
aI11396
aF0.47635135135135137
asS'[(13, 2), (8, 4)]'
p1523
(lp1524
F6394.0
aI11321
aF0.5647910961929158
asS'[(14, 3), (9, 2)]'
p1525
(lp1526
F6698.5
aI11100
aF0.6034684684684685
asS'[(5, 4), (11, 4)]'
p1527
(lp1528
F5663.0
aI11279
aF0.5020835180423796
asS'[(10, 2), (9, 4)]'
p1529
(lp1530
F5809.5
aI11167
aF0.520238201844721
asS'[(14, 2), (8, 4)]'
p1531
(lp1532
F6813.0
aI11402
aF0.5975267496930363
asS'[(2, 4), (8, 3)]'
p1533
(lp1534
F4178.0
aI11406
aF0.36629843941785023
asS'[(8, 2), (5, 4)]'
p1535
(lp1536
F4738.0
aI11089
aF0.42727026783298766
asS'[(2, 1), (9, 2)]'
p1537
(lp1538
F4385.0
aI11380
aF0.38532513181019334
asS'[(14, 3), (13, 2)]'
p1539
(lp1540
F7441.5
aI11338
aF0.6563326865408361
asS'[(2, 1), (11, 4)]'
p1541
(lp1542
F4955.5
aI11462
aF0.43234165067178504
asS'[(12, 3), (6, 1)]'
p1543
(lp1544
F5677.0
aI11070
aF0.5128274616079495
asS'[(11, 2), (8, 2)]'
p1545
(lp1546
F6244.0
aI11310
aF0.552077807250221
asS'[(3, 4), (10, 4)]'
p1547
(lp1548
F5099.0
aI11237
aF0.45376879950164634
asS'[(5, 4), (8, 3)]'
p1549
(lp1550
F4830.5
aI11277
aF0.4283497384056043
asS'[(5, 2), (8, 2)]'
p1551
(lp1552
F5089.0
aI11282
aF0.45107250487502215
asS'[(13, 1), (5, 1)]'
p1553
(lp1554
F6385.0
aI11548
aF0.5529095947350191
asS'[(13, 2), (14, 1)]'
p1555
(lp1556
F7348.5
aI11296
aF0.650540014164306
asS'[(10, 2), (14, 4)]'
p1557
(lp1558
F7108.0
aI11334
aF0.6271395800247044
asS'[(11, 3), (10, 3)]'
p1559
(lp1560
F6739.5
aI11430
aF0.5896325459317585
asS'[(8, 3), (11, 4)]'
p1561
(lp1562
F5964.5
aI11364
aF0.5248592045054559
asS'[(11, 4), (2, 4)]'
p1563
(lp1564
F5264.5
aI11362
aF0.46334272135187465
asS'[(9, 2), (8, 1)]'
p1565
(lp1566
F5707.5
aI11344
aF0.503129407616361
asS'[(5, 4), (13, 1)]'
p1567
(lp1568
F5971.0
aI11326
aF0.5271940667490729
asS'[(14, 4), (4, 4)]'
p1569
(lp1570
F6332.0
aI11263
aF0.5621947971233242
asS'[(11, 1), (5, 1)]'
p1571
(lp1572
F5567.0
aI11170
aF0.4983885407341092
asS'[(11, 3), (13, 1)]'
p1573
(lp1574
F6872.0
aI11359
aF0.6049828329958623
asS'[(9, 3), (4, 4)]'
p1575
(lp1576
F4543.5
aI11263
aF0.4034005149604901
asS'[(11, 4), (13, 3)]'
p1577
(lp1578
F6797.5
aI11168
aF0.6086586676217765
asS'[(14, 2), (9, 1)]'
p1579
(lp1580
F6875.5
aI11346
aF0.60598448792526
asS'[(11, 1), (11, 3)]'
p1581
(lp1582
F8891.0
aI11371
aF0.7819013279394952
asS'[(7, 2), (10, 3)]'
p1583
(lp1584
F5517.0
aI11234
aF0.4910984511304967
asS'[(7, 4), (9, 1)]'
p1585
(lp1586
F5433.0
aI11296
aF0.4809667138810198
asS'[(7, 3), (12, 4)]'
p1587
(lp1588
F5884.5
aI11273
aF0.5219994677548124
asS'[(5, 2), (4, 4)]'
p1589
(lp1590
F4240.5
aI11286
aF0.3757309941520468
asS'[(12, 1), (5, 4)]'
p1591
(lp1592
F5446.5
aI11171
aF0.487557067406678
asS'[(10, 2), (3, 4)]'
p1593
(lp1594
F4797.5
aI11247
aF0.42655819329599004
asS'[(5, 3), (6, 4)]'
p1595
(lp1596
F4643.5
aI11340
aF0.40947971781305115
asS'[(4, 3), (8, 3)]'
p1597
(lp1598
F4902.0
aI11279
aF0.4346129976061708
asS'[(10, 3), (2, 1)]'
p1599
(lp1600
F4564.5
aI11269
aF0.4050492501552933
asS'[(12, 2), (13, 2)]'
p1601
(lp1602
F7253.0
aI11352
aF0.6389182522903453
asS'[(14, 2), (4, 3)]'
p1603
(lp1604
F6159.0
aI11470
aF0.5369659982563209
asS'[(2, 2), (11, 4)]'
p1605
(lp1606
F4804.0
aI11268
aF0.4263400780972666
asS'[(4, 1), (13, 4)]'
p1607
(lp1608
F5822.5
aI11317
aF0.5144914730052134
asS'[(5, 3), (3, 2)]'
p1609
(lp1610
F3964.5
aI11273
aF0.3516810077175552
asS'[(3, 4), (2, 3)]'
p1611
(lp1612
F3573.0
aI11351
aF0.3147740287199366
asS'[(4, 1), (8, 4)]'
p1613
(lp1614
F4451.5
aI11201
aF0.39741987322560485
asS'[(14, 4), (14, 2)]'
p1615
(lp1616
F9672.0
aI11160
aF0.8666666666666667
asS'[(11, 2), (7, 4)]'
p1617
(lp1618
F5714.5
aI11309
aF0.5053055088867274
asS'[(3, 3), (8, 1)]'
p1619
(lp1620
F4304.0
aI11407
aF0.37731217673358464
asS'[(7, 3), (4, 3)]'
p1621
(lp1622
F4728.5
aI11251
aF0.4202737534441383
asS'[(13, 1), (12, 2)]'
p1623
(lp1624
F7077.0
aI11361
aF0.6229205175600739
asS'[(4, 3), (11, 2)]'
p1625
(lp1626
F5152.5
aI11163
aF0.46156947057242675
asS'[(3, 3), (13, 2)]'
p1627
(lp1628
F5584.5
aI11260
aF0.4959591474245115
asS'[(9, 3), (13, 2)]'
p1629
(lp1630
F6545.5
aI11386
aF0.5748726506235728
asS'[(2, 4), (3, 2)]'
p1631
(lp1632
F3487.0
aI11385
aF0.30628019323671496
asS'[(11, 4), (5, 2)]'
p1633
(lp1634
F5235.0
aI11287
aF0.4638079206166386
asS'[(12, 4), (4, 2)]'
p1635
(lp1636
F5598.5
aI11504
aF0.48665681502086233
asS'[(8, 4), (12, 2)]'
p1637
(lp1638
F6163.5
aI11222
aF0.5492336481910532
asS'[(5, 4), (3, 4)]'
p1639
(lp1640
F4382.5
aI11344
aF0.38632757404795487
asS'[(12, 1), (14, 4)]'
p1641
(lp1642
F7323.5
aI11364
aF0.6444473776839141
asS'[(10, 4), (5, 4)]'
p1643
(lp1644
F5388.5
aI11109
aF0.4850571608605635
asS'[(6, 4), (5, 3)]'
p1645
(lp1646
F4560.0
aI11329
aF0.4025068408509136
asS'[(6, 4), (10, 2)]'
p1647
(lp1648
F5319.0
aI11107
aF0.4788871882596561
asS'[(10, 2), (4, 1)]'
p1649
(lp1650
F4917.0
aI11233
aF0.4377281224962165
asS'[(8, 4), (11, 4)]'
p1651
(lp1652
F6250.0
aI11407
aF0.5479091785745595
asS'[(10, 2), (6, 4)]'
p1653
(lp1654
F5318.0
aI11379
aF0.46735213990684593
asS'[(13, 1), (5, 4)]'
p1655
(lp1656
F5885.0
aI11242
aF0.5234833659491194
asS'[(4, 4), (3, 2)]'
p1657
(lp1658
F3792.5
aI11150
aF0.3401345291479821
asS'[(10, 4), (13, 3)]'
p1659
(lp1660
F6908.0
aI11383
aF0.6068698937011333
asS'[(12, 2), (14, 1)]'
p1661
(lp1662
F7281.0
aI11261
aF0.6465678003729687
asS'[(9, 1), (14, 4)]'
p1663
(lp1664
F6916.0
aI11300
aF0.6120353982300885
asS'[(13, 4), (8, 4)]'
p1665
(lp1666
F6485.5
aI11133
aF0.5825473816581335
asS'[(13, 1), (2, 1)]'
p1667
(lp1668
F5902.0
aI11369
aF0.5191309701820741
asS'[(6, 1), (7, 4)]'
p1669
(lp1670
F4850.5
aI11107
aF0.436706581435131
asS'[(8, 3), (14, 2)]'
p1671
(lp1672
F6779.0
aI11293
aF0.6002833613743027
asS'[(8, 4), (5, 3)]'
p1673
(lp1674
F4817.5
aI11420
aF0.4218476357267951
asS'[(12, 2), (4, 3)]'
p1675
(lp1676
F5382.5
aI11370
aF0.47339489885664027
asS'[(10, 4), (4, 4)]'
p1677
(lp1678
F5316.0
aI11427
aF0.4652139669204516
asS'[(14, 1), (13, 4)]'
p1679
(lp1680
F7407.0
aI11348
aF0.6527141346492774
asS'[(6, 3), (13, 2)]'
p1681
(lp1682
F6056.5
aI11204
aF0.5405658693323813
asS'[(3, 1), (8, 4)]'
p1683
(lp1684
F4262.0
aI11440
aF0.37255244755244754
asS'[(7, 2), (14, 4)]'
p1685
(lp1686
F6626.5
aI11344
aF0.5841413963328632
asS'[(7, 1), (12, 4)]'
p1687
(lp1688
F5926.0
aI11403
aF0.5196878014557572
asS'[(6, 1), (2, 2)]'
p1689
(lp1690
F3932.5
aI11426
aF0.3441711885174164
asS'[(2, 3), (2, 2)]'
p1691
(lp1692
F5728.0
aI11227
aF0.5101986283067604
asS'[(13, 1), (2, 3)]'
p1693
(lp1694
F5509.0
aI11282
aF0.4882999468179401
asS'[(4, 3), (9, 1)]'
p1695
(lp1696
F4594.0
aI11289
aF0.4069448135352999
asS'[(12, 3), (9, 4)]'
p1697
(lp1698
F6394.0
aI11327
aF0.5644919219563874
asS'[(5, 2), (14, 2)]'
p1699
(lp1700
F6657.0
aI11504
aF0.5786682892906815
asS'[(10, 3), (6, 3)]'
p1701
(lp1702
F5557.0
aI11347
aF0.48973296906671365
asS'[(6, 3), (10, 4)]'
p1703
(lp1704
F5244.5
aI11191
aF0.46863551067822357
asS'[(12, 2), (10, 3)]'
p1705
(lp1706
F6533.0
aI11389
aF0.573623671964176
asS'[(12, 3), (9, 1)]'
p1707
(lp1708
F6361.5
aI11224
aF0.5667765502494654
asS'[(6, 4), (4, 4)]'
p1709
(lp1710
F4766.0
aI11327
aF0.4207645448927342
asS'[(2, 3), (12, 3)]'
p1711
(lp1712
F5620.5
aI11321
aF0.49646674322056356
asS'[(14, 2), (9, 4)]'
p1713
(lp1714
F6881.5
aI11398
aF0.6037462712756624
asS'[(4, 4), (10, 1)]'
p1715
(lp1716
F4910.5
aI11414
aF0.43021727702821094
asS'[(3, 1), (12, 4)]'
p1717
(lp1718
F5315.0
aI11350
aF0.4682819383259912
asS'[(12, 3), (7, 2)]'
p1719
(lp1720
F5898.0
aI11398
aF0.5174592033690121
asS'[(9, 4), (12, 3)]'
p1721
(lp1722
F6382.0
aI11344
aF0.5625881523272215
asS'[(5, 1), (8, 3)]'
p1723
(lp1724
F4812.5
aI11318
aF0.425207633857572
asS'[(3, 2), (11, 4)]'
p1725
(lp1726
F5006.5
aI11221
aF0.44617235540504413
asS'[(3, 1), (5, 2)]'
p1727
(lp1728
F3837.0
aI11208
aF0.3423447537473233
asS'[(14, 4), (9, 3)]'
p1729
(lp1730
F6893.5
aI11382
aF0.6056492707784221
asS'[(6, 2), (6, 3)]'
p1731
(lp1732
F7200.5
aI11278
aF0.6384553998935981
asS'[(10, 2), (7, 3)]'
p1733
(lp1734
F5386.5
aI10955
aF0.49169329073482426
asS'[(3, 1), (6, 4)]'
p1735
(lp1736
F4026.5
aI11251
aF0.35787929961781173
asS'[(4, 1), (10, 2)]'
p1737
(lp1738
F4852.0
aI11293
aF0.42964668378641635
asS'[(2, 3), (13, 4)]'
p1739
(lp1740
F5557.0
aI11312
aF0.49124823196605377
asS'[(2, 4), (8, 1)]'
p1741
(lp1742
F4213.0
aI11410
aF0.3692375109553024
asS'[(9, 2), (13, 4)]'
p1743
(lp1744
F6695.0
aI11336
aF0.5905963302752294
asS'[(3, 3), (10, 2)]'
p1745
(lp1746
F4704.5
aI11217
aF0.4194080413657841
asS'[(12, 2), (9, 4)]'
p1747
(lp1748
F6428.0
aI11448
aF0.5614954577218728
asS'[(3, 4), (10, 2)]'
p1749
(lp1750
F4752.5
aI11289
aF0.42098502967490475
asS'[(11, 2), (6, 3)]'
p1751
(lp1752
F5584.0
aI11458
aF0.4873450864025135
asS'[(12, 1), (2, 2)]'
p1753
(lp1754
F5153.0
aI11160
aF0.46173835125448026
asS'[(7, 4), (2, 3)]'
p1755
(lp1756
F3913.5
aI11297
aF0.3464194033814287
asS'[(12, 4), (9, 3)]'
p1757
(lp1758
F6455.5
aI11197
aF0.5765383584888809
asS'[(7, 3), (9, 4)]'
p1759
(lp1760
F5386.5
aI11393
aF0.47279030983937503
asS'[(11, 4), (9, 4)]'
p1761
(lp1762
F6401.0
aI11376
aF0.5626758087201125
asS'[(4, 4), (12, 1)]'
p1763
(lp1764
F5368.0
aI11333
aF0.4736609900291185
asS'[(3, 2), (12, 4)]'
p1765
(lp1766
F5314.5
aI11306
aF0.47006014505572263
asS'[(2, 4), (5, 3)]'
p1767
(lp1768
F3784.0
aI11391
aF0.3321920814678255
asS'[(3, 1), (6, 1)]'
p1769
(lp1770
F4470.0
aI11354
aF0.39369385238682403
asS'[(13, 2), (2, 2)]'
p1771
(lp1772
F5996.0
aI11370
aF0.5273526824978012
asS'[(3, 2), (9, 3)]'
p1773
(lp1774
F4548.5
aI11377
aF0.39979783774281447
asS'[(4, 4), (13, 3)]'
p1775
(lp1776
F5684.5
aI11146
aF0.5100035887313834
asS'[(7, 3), (6, 2)]'
p1777
(lp1778
F4957.5
aI11424
aF0.4339548319327731
asS'[(8, 4), (4, 1)]'
p1779
(lp1780
F4481.5
aI11305
aF0.3964175143741707
asS'[(5, 4), (9, 2)]'
p1781
(lp1782
F4967.0
aI11314
aF0.4390136114548347
asS'[(11, 3), (5, 1)]'
p1783
(lp1784
F5274.5
aI11278
aF0.46768043979428975
asS'[(9, 2), (4, 3)]'
p1785
(lp1786
F4800.5
aI11363
aF0.42246765818885856
asS'[(12, 4), (11, 2)]'
p1787
(lp1788
F6560.5
aI11185
aF0.586544479213232
asS'[(6, 1), (11, 4)]'
p1789
(lp1790
F5677.5
aI11512
aF0.49318102849200834
asS'[(11, 3), (5, 4)]'
p1791
(lp1792
F5415.0
aI11412
aF0.4745005257623554
asS'[(5, 4), (14, 4)]'
p1793
(lp1794
F6551.5
aI11345
aF0.577479065667695
asS'[(14, 1), (12, 3)]'
p1795
(lp1796
F7361.5
aI11362
aF0.6479052983629643
asS'[(12, 2), (14, 4)]'
p1797
(lp1798
F7270.0
aI11220
aF0.6479500891265597
asS'[(2, 3), (5, 2)]'
p1799
(lp1800
F3670.0
aI11219
aF0.3271236295570015
asS'[(8, 3), (9, 3)]'
p1801
(lp1802
F6007.0
aI11452
aF0.5245371987425778
asS'[(7, 1), (12, 2)]'
p1803
(lp1804
F5940.0
aI11332
aF0.5241793152135545
asS'[(13, 2), (11, 2)]'
p1805
(lp1806
F7293.5
aI11429
aF0.6381573191005337
asS'[(4, 2), (5, 1)]'
p1807
(lp1808
F4068.5
aI11102
aF0.36646550171140335
asS'[(2, 4), (9, 4)]'
p1809
(lp1810
F4677.5
aI11047
aF0.42341812256721284
asS'[(5, 2), (9, 3)]'
p1811
(lp1812
F4890.5
aI11205
aF0.43645693886657744
asS'[(2, 3), (7, 2)]'
p1813
(lp1814
F4047.5
aI11479
aF0.35260040073177107
asS'[(12, 1), (9, 2)]'
p1815
(lp1816
F6333.0
aI11376
aF0.556698312236287
asS'[(2, 2), (14, 1)]'
p1817
(lp1818
F6044.5
aI11526
aF0.5244230435537046
asS'[(7, 3), (13, 1)]'
p1819
(lp1820
F6167.5
aI11382
aF0.5418643472149007
asS'[(5, 2), (5, 1)]'
p1821
(lp1822
F6812.0
aI11198
aF0.6083229148062154
asS'[(2, 2), (4, 4)]'
p1823
(lp1824
F3570.5
aI11278
aF0.31658982089022875
asS'[(12, 3), (11, 2)]'
p1825
(lp1826
F6457.0
aI11077
aF0.5829195630585898
asS'[(8, 3), (10, 3)]'
p1827
(lp1828
F6093.0
aI11279
aF0.5402074652008156
asS'[(11, 1), (14, 3)]'
p1829
(lp1830
F7267.0
aI11391
aF0.6379597928188921
asS'[(10, 2), (9, 2)]'
p1831
(lp1832
F6321.5
aI11479
aF0.5507012805993553
asS'[(4, 1), (14, 1)]'
p1833
(lp1834
F6400.0
aI11307
aF0.5660210489077563
asS'[(10, 3), (8, 1)]'
p1835
(lp1836
F5729.5
aI11299
aF0.5070802725904947
asS'[(3, 4), (7, 2)]'
p1837
(lp1838
F4175.0
aI11392
aF0.36648525280898875
asS'[(8, 4), (10, 3)]'
p1839
(lp1840
F5826.5
aI11375
aF0.5122197802197802
asS'[(7, 3), (2, 1)]'
p1841
(lp1842
F3941.5
aI11422
aF0.34507967081071617
asS'[(4, 4), (9, 3)]'
p1843
(lp1844
F4591.5
aI11144
aF0.4120154343144293
asS'[(9, 3), (12, 2)]'
p1845
(lp1846
F6398.0
aI11349
aF0.5637501101418627
asS'[(12, 2), (13, 1)]'
p1847
(lp1848
F7158.0
aI11500
aF0.6224347826086957
asS'[(11, 3), (8, 3)]'
p1849
(lp1850
F6232.0
aI11297
aF0.5516508807648048
asS'[(8, 4), (13, 3)]'
p1851
(lp1852
F6423.5
aI11405
aF0.5632178868917141
asS'[(7, 2), (3, 3)]'
p1853
(lp1854
F4202.0
aI11287
aF0.3722867015150173
asS'[(5, 4), (12, 3)]'
p1855
(lp1856
F5713.0
aI11577
aF0.49347844864818174
asS'[(9, 2), (9, 3)]'
p1857
(lp1858
F8206.5
aI11280
aF0.7275265957446808
asS'[(14, 1), (4, 1)]'
p1859
(lp1860
F6343.0
aI11333
aF0.5596929321450631
asS'[(14, 1), (6, 3)]'
p1861
(lp1862
F6353.0
aI11229
aF0.56576720990293
asS'[(14, 1), (2, 2)]'
p1863
(lp1864
F5822.5
aI11398
aF0.5108352342516231
asS'[(5, 2), (11, 4)]'
p1865
(lp1866
F5426.0
aI11253
aF0.48218252910335024
asS'[(13, 1), (14, 1)]'
p1867
(lp1868
F7655.5
aI11344
aF0.6748501410437235
asS'[(9, 4), (7, 3)]'
p1869
(lp1870
F5513.5
aI11465
aF0.4808983863933711
asS'[(2, 4), (8, 4)]'
p1871
(lp1872
F4538.5
aI11342
aF0.4001498853817669
asS'[(2, 3), (13, 1)]'
p1873
(lp1874
F5597.0
aI11361
aF0.49265029486840944
asS'[(14, 4), (4, 2)]'
p1875
(lp1876
F6119.5
aI11327
aF0.5402577911185663
asS'[(4, 1), (8, 1)]'
p1877
(lp1878
F4946.5
aI11488
aF0.43057973537604455
asS'[(2, 4), (11, 3)]'
p1879
(lp1880
F4924.5
aI11461
aF0.42967454846872
asS'[(10, 4), (11, 4)]'
p1881
(lp1882
F6570.5
aI11257
aF0.5836812649906725
asS'[(9, 4), (13, 4)]'
p1883
(lp1884
F6924.0
aI11463
aF0.6040303585448835
asS'[(5, 1), (9, 4)]'
p1885
(lp1886
F4765.5
aI11218
aF0.4248083437332858
asS'[(12, 3), (2, 3)]'
p1887
(lp1888
F5443.5
aI11179
aF0.4869397978352268
asS'[(5, 4), (6, 2)]'
p1889
(lp1890
F4734.5
aI11428
aF0.4142894644732237
asS'[(2, 2), (10, 2)]'
p1891
(lp1892
F4920.5
aI11311
aF0.43501900804526566
asS'[(10, 1), (14, 2)]'
p1893
(lp1894
F7073.0
aI11200
aF0.6315178571428571
asS'[(2, 4), (12, 1)]'
p1895
(lp1896
F5113.0
aI11311
aF0.4520378392715056
asS'[(4, 4), (10, 3)]'
p1897
(lp1898
F4890.5
aI11247
aF0.4348270649951098
asS'[(14, 2), (10, 2)]'
p1899
(lp1900
F7259.0
aI11236
aF0.6460484158063368
asS'[(4, 3), (9, 3)]'
p1901
(lp1902
F5018.5
aI11383
aF0.4408767460247738
asS'[(13, 3), (2, 4)]'
p1903
(lp1904
F5581.5
aI11410
aF0.4891761612620508
asS'[(7, 2), (13, 2)]'
p1905
(lp1906
F6638.5
aI11501
aF0.5772106773324058
asS'[(14, 2), (9, 2)]'
p1907
(lp1908
F7163.5
aI11277
aF0.6352310011527889
asS'[(11, 2), (7, 1)]'
p1909
(lp1910
F5738.5
aI11260
aF0.5096358792184724
asS'[(13, 1), (3, 4)]'
p1911
(lp1912
F5679.0
aI11358
aF0.5
asS'[(14, 4), (7, 2)]'
p1913
(lp1914
F6499.0
aI11229
aF0.5787692581708077
asS'[(6, 2), (3, 4)]'
p1915
(lp1916
F4175.0
aI11412
aF0.3658429723098493
asS'[(13, 3), (14, 3)]'
p1917
(lp1918
F7713.0
aI11470
aF0.6724498692240628
asS'[(3, 1), (7, 3)]'
p1919
(lp1920
F4089.5
aI11271
aF0.36283382131132996
asS'[(13, 4), (12, 4)]'
p1921
(lp1922
F7233.5
aI11247
aF0.6431492842535788
asS'[(12, 4), (8, 4)]'
p1923
(lp1924
F6484.0
aI11397
aF0.5689216460472054
asS'[(11, 2), (10, 2)]'
p1925
(lp1926
F6662.5
aI11350
aF0.5870044052863436
asS'[(6, 4), (8, 3)]'
p1927
(lp1928
F5007.0
aI11355
aF0.44095112285336857
asS'[(12, 4), (6, 4)]'
p1929
(lp1930
F6019.5
aI11235
aF0.535781041388518
asS'[(6, 2), (6, 1)]'
p1931
(lp1932
F7128.5
aI11262
aF0.6329692772154146
asS'[(3, 2), (9, 4)]'
p1933
(lp1934
F4567.5
aI11453
aF0.3988038068628307
asS'[(7, 3), (3, 1)]'
p1935
(lp1936
F4073.5
aI11283
aF0.36102986794292297
asS'[(3, 1), (4, 3)]'
p1937
(lp1938
F3755.0
aI11382
aF0.3299068704972764
asS'[(8, 4), (9, 3)]'
p1939
(lp1940
F5643.5
aI11274
aF0.5005765478091183
asS'[(4, 1), (10, 3)]'
p1941
(lp1942
F4792.0
aI11196
aF0.4280100035727045
asS'[(8, 2), (8, 4)]'
p1943
(lp1944
F7801.5
aI11163
aF0.6988712711636657
asS'[(13, 4), (5, 3)]'
p1945
(lp1946
F5965.0
aI11329
aF0.526524847735899
asS'[(3, 2), (8, 4)]'
p1947
(lp1948
F4086.5
aI11211
aF0.3645080724288645
asS'[(14, 2), (7, 3)]'
p1949
(lp1950
F6584.0
aI11284
aF0.5834810350939383
asS'[(11, 1), (13, 4)]'
p1951
(lp1952
F6791.5
aI11177
aF0.6076317437595061
asS'[(4, 4), (11, 4)]'
p1953
(lp1954
F5510.5
aI11322
aF0.4867072955308249
asS'[(12, 1), (14, 3)]'
p1955
(lp1956
F7238.0
aI11236
aF0.6441794232823068
asS'[(13, 4), (13, 3)]'
p1957
(lp1958
F9438.0
aI11293
aF0.8357389533339237
asS'[(11, 4), (6, 3)]'
p1959
(lp1960
F5491.0
aI11365
aF0.4831500219973603
asS'[(10, 4), (12, 1)]'
p1961
(lp1962
F6533.5
aI11326
aF0.576858555535935
asS'[(4, 3), (13, 2)]'
p1963
(lp1964
F5786.0
aI11373
aF0.5087487909962192
asS'[(11, 1), (10, 1)]'
p1965
(lp1966
F6575.0
aI11311
aF0.5812925470780655
asS'[(3, 3), (13, 1)]'
p1967
(lp1968
F5745.5
aI11477
aF0.5006099154831402
asS'[(3, 1), (10, 4)]'
p1969
(lp1970
F4619.0
aI11168
aF0.41359240687679083
asS'[(2, 1), (12, 3)]'
p1971
(lp1972
F5204.5
aI11134
aF0.4674420693371654
asS'[(12, 4), (4, 1)]'
p1973
(lp1974
F5422.0
aI11369
aF0.4769108980561175
asS'[(10, 3), (8, 4)]'
p1975
(lp1976
F5773.5
aI11314
aF0.5102969771963939
asS'[(6, 4), (2, 2)]'
p1977
(lp1978
F3881.0
aI11355
aF0.34178775869660943
asS'[(6, 4), (8, 1)]'
p1979
(lp1980
F5001.0
aI11218
aF0.4458013906222143
asS'[(13, 2), (14, 2)]'
p1981
(lp1982
F7625.0
aI11338
aF0.6725171988004939
asS'[(14, 2), (6, 4)]'
p1983
(lp1984
F6434.0
aI11408
aF0.5639901823281908
asS'[(8, 4), (4, 3)]'
p1985
(lp1986
F4530.5
aI11436
aF0.39616124519062607
asS'[(12, 2), (5, 3)]'
p1987
(lp1988
F5551.0
aI11256
aF0.4931592039800995
asS'[(10, 4), (8, 1)]'
p1989
(lp1990
F5904.0
aI11476
aF0.5144649703729522
asS'[(13, 4), (9, 4)]'
p1991
(lp1992
F6746.5
aI11334
aF0.595244397388389
asS'[(4, 4), (14, 2)]'
p1993
(lp1994
F6026.5
aI11272
aF0.5346433640880057
asS'[(9, 2), (7, 1)]'
p1995
(lp1996
F5488.5
aI11378
aF0.4823782738618386
asS'[(7, 3), (9, 1)]'
p1997
(lp1998
F5495.5
aI11345
aF0.4843984133979727
asS'[(6, 2), (8, 1)]'
p1999
(lp2000
F5088.0
aI11357
aF0.44800563529100995
asS'[(3, 2), (11, 1)]'
p2001
(lp2002
F5103.0
aI11381
aF0.44837887707582813
asS'[(13, 1), (3, 2)]'
p2003
(lp2004
F5592.5
aI11382
aF0.4913459848884203
asS'[(10, 3), (6, 4)]'
p2005
(lp2006
F5328.0
aI11319
aF0.4707129605088789
asS'[(4, 4), (11, 2)]'
p2007
(lp2008
F5040.5
aI11269
aF0.4472890229834058
asS'[(7, 1), (11, 3)]'
p2009
(lp2010
F5646.0
aI11231
aF0.5027156976226516
asS'[(2, 1), (10, 3)]'
p2011
(lp2012
F4667.0
aI11405
aF0.40920648838228846
asS'[(9, 2), (3, 3)]'
p2013
(lp2014
F4582.0
aI11197
aF0.40921675448780925
asS'[(12, 1), (3, 4)]'
p2015
(lp2016
F5221.0
aI11220
aF0.46532976827094474
asS'[(7, 2), (12, 3)]'
p2017
(lp2018
F6036.5
aI11467
aF0.5264236504752768
asS'[(13, 3), (6, 3)]'
p2019
(lp2020
F6437.0
aI11312
aF0.5690417256011315
asS'[(8, 2), (10, 3)]'
p2021
(lp2022
F5748.0
aI11225
aF0.5120712694877505
asS'[(3, 3), (2, 1)]'
p2023
(lp2024
F3416.5
aI11177
aF0.3056723628880737
asS'[(9, 1), (12, 2)]'
p2025
(lp2026
F6270.0
aI11172
aF0.5612244897959183
asS'[(7, 4), (7, 3)]'
p2027
(lp2028
F7751.0
aI11324
aF0.6844754503708936
asS'[(13, 1), (13, 3)]'
p2029
(lp2030
F9490.0
aI11316
aF0.8386355602686462
asS'[(5, 2), (13, 3)]'
p2031
(lp2032
F5999.0
aI11245
aF0.5334815473543797
asS'[(4, 2), (4, 4)]'
p2033
(lp2034
F6527.0
aI11271
aF0.5790967970898767
asS'[(2, 1), (7, 1)]'
p2035
(lp2036
F4416.0
aI11196
aF0.39442658092175775
asS'[(10, 2), (12, 3)]'
p2037
(lp2038
F6560.0
aI11255
aF0.5828520657485562
asS'[(7, 2), (4, 2)]'
p2039
(lp2040
F4719.5
aI11365
aF0.4152661680598328
asS'[(8, 2), (13, 4)]'
p2041
(lp2042
F6478.0
aI11400
aF0.5682456140350877
asS'[(13, 4), (12, 1)]'
p2043
(lp2044
F7077.5
aI11403
aF0.6206699991230378
asS'[(2, 1), (8, 3)]'
p2045
(lp2046
F4137.0
aI11258
aF0.36747201989696215
asS'[(9, 4), (3, 3)]'
p2047
(lp2048
F4428.5
aI11382
aF0.3890792479353365
asS'[(7, 4), (3, 3)]'
p2049
(lp2050
F4154.5
aI11361
aF0.3656808379544054
asS'[(4, 2), (11, 3)]'
p2051
(lp2052
F4987.5
aI11161
aF0.44686856016485976
asS'[(5, 3), (12, 4)]'
p2053
(lp2054
F5639.0
aI11232
aF0.5020477207977208
asS'[(7, 4), (13, 3)]'
p2055
(lp2056
F6278.5
aI11303
aF0.5554719985844466
asS'[(13, 2), (6, 3)]'
p2057
(lp2058
F6154.5
aI11262
aF0.5464837506659563
asS'[(14, 3), (5, 3)]'
p2059
(lp2060
F6426.5
aI11306
aF0.5684150008844862
asS'[(9, 4), (7, 1)]'
p2061
(lp2062
F5314.5
aI11286
aF0.47089314194577353
asS'[(13, 1), (6, 4)]'
p2063
(lp2064
F6088.0
aI11343
aF0.5367186811249228
asS'[(7, 3), (6, 4)]'
p2065
(lp2066
F4946.0
aI11389
aF0.4342786899640004
asS'[(3, 3), (11, 1)]'
p2067
(lp2068
F5026.0
aI11491
aF0.4373857801757898
asS'[(2, 2), (2, 4)]'
p2069
(lp2070
F5805.5
aI11266
aF0.5153115568968578
asS'[(14, 3), (6, 4)]'
p2071
(lp2072
F6461.0
aI11251
aF0.5742600657719313
asS'[(2, 3), (14, 3)]'
p2073
(lp2074
F6205.5
aI11401
aF0.544294360143847
asS'[(12, 2), (9, 3)]'
p2075
(lp2076
F6398.0
aI11428
aF0.5598529926496325
asS'[(13, 1), (4, 4)]'
p2077
(lp2078
F5653.0
aI11392
aF0.4962254213483146
asS'[(14, 3), (5, 1)]'
p2079
(lp2080
F6222.5
aI11283
aF0.5514933971461491
asS'[(13, 2), (2, 3)]'
p2081
(lp2082
F5462.5
aI11276
aF0.48443597020219936
asS'[(6, 2), (9, 1)]'
p2083
(lp2084
F5115.0
aI11388
aF0.44915700737618547
asS'[(3, 3), (2, 3)]'
p2085
(lp2086
F3840.5
aI11309
aF0.33959678132460874
asS'[(5, 4), (9, 4)]'
p2087
(lp2088
F5186.5
aI11255
aF0.4608174144824522
asS'[(8, 1), (9, 1)]'
p2089
(lp2090
F5739.0
aI11161
aF0.5142012364483469
asS'[(11, 1), (3, 1)]'
p2091
(lp2092
F5261.5
aI11234
aF0.4683549937689158
asS'[(3, 4), (10, 3)]'
p2093
(lp2094
F4831.5
aI11321
aF0.42677325324617965
asS'[(2, 4), (6, 3)]'
p2095
(lp2096
F3921.5
aI11334
aF0.3459943532733369
asS'[(11, 1), (3, 3)]'
p2097
(lp2098
F4995.5
aI11283
aF0.44274572365505627
asS'[(8, 2), (14, 2)]'
p2099
(lp2100
F6959.5
aI11300
aF0.6158849557522124
asS'[(6, 3), (2, 1)]'
p2101
(lp2102
F3909.0
aI11266
aF0.34697319368009943
asS'[(10, 3), (7, 2)]'
p2103
(lp2104
F5520.0
aI11351
aF0.486300766452295
asS'[(9, 1), (12, 4)]'
p2105
(lp2106
F6435.0
aI11418
aF0.5635838150289018
asS'[(7, 2), (2, 3)]'
p2107
(lp2108
F3904.0
aI11294
aF0.3456702673986187
asS'[(2, 2), (9, 4)]'
p2109
(lp2110
F4412.5
aI11372
aF0.38801442138586
asS'[(12, 3), (14, 3)]'
p2111
(lp2112
F7456.5
aI11242
aF0.6632716598470023
asS'[(10, 2), (13, 1)]'
p2113
(lp2114
F6838.5
aI11337
aF0.6032019052659434
asS'[(13, 1), (6, 1)]'
p2115
(lp2116
F6242.0
aI11076
aF0.5635608522932467
asS'[(7, 2), (11, 1)]'
p2117
(lp2118
F5660.0
aI11204
aF0.5051767225990718
asS'[(9, 2), (7, 4)]'
p2119
(lp2120
F5404.0
aI11208
aF0.48215560314061384
asS'[(7, 1), (9, 1)]'
p2121
(lp2122
F5701.0
aI11206
aF0.5087453150098161
asS'[(6, 4), (14, 3)]'
p2123
(lp2124
F6506.5
aI11388
aF0.5713470319634704
asS'[(9, 3), (2, 1)]'
p2125
(lp2126
F4479.0
aI11602
aF0.3860541285985175
asS'[(14, 3), (12, 3)]'
p2127
(lp2128
F7523.0
aI11281
aF0.666873504121975
asS'[(14, 2), (14, 3)]'
p2129
(lp2130
F9810.0
aI11340
aF0.8650793650793651
asS'[(9, 4), (8, 2)]'
p2131
(lp2132
F5483.5
aI11122
aF0.4930318288077684
asS'[(9, 1), (4, 1)]'
p2133
(lp2134
F4915.5
aI11305
aF0.4348076072534277
asS'[(11, 2), (12, 4)]'
p2135
(lp2136
F6741.0
aI11314
aF0.5958105002651582
asS'[(2, 2), (5, 2)]'
p2137
(lp2138
F4249.5
aI11357
aF0.3741745179184644
asS'[(7, 3), (13, 2)]'
p2139
(lp2140
F6253.5
aI11188
aF0.5589470861637469
asS'[(11, 4), (6, 1)]'
p2141
(lp2142
F5487.5
aI11311
aF0.48514720183891785
asS'[(4, 2), (7, 4)]'
p2143
(lp2144
F4451.5
aI11369
aF0.39154718972644914
asS'[(10, 3), (5, 2)]'
p2145
(lp2146
F5073.0
aI11310
aF0.44854111405835545
asS'[(6, 2), (3, 1)]'
p2147
(lp2148
F4161.5
aI11399
aF0.3650758838494605
asS'[(8, 2), (8, 3)]'
p2149
(lp2150
F7882.5
aI11316
aF0.6965800636267232
asS'[(11, 3), (12, 3)]'
p2151
(lp2152
F7003.5
aI11377
aF0.6155840731299991
asS'[(11, 4), (5, 3)]'
p2153
(lp2154
F5278.0
aI11202
aF0.47116586323870735
asS'[(2, 1), (12, 1)]'
p2155
(lp2156
F5567.5
aI11610
aF0.4795434969853575
asS'[(2, 3), (6, 3)]'
p2157
(lp2158
F4250.5
aI11272
aF0.3770848119233499
asS'[(9, 2), (9, 4)]'
p2159
(lp2160
F8341.0
aI11404
aF0.7314100315678709
asS'[(6, 3), (8, 2)]'
p2161
(lp2162
F4966.5
aI11198
aF0.44351669941060906
asS'[(4, 4), (5, 2)]'
p2163
(lp2164
F4274.0
aI11427
aF0.37402642863393715
asS'[(14, 4), (7, 1)]'
p2165
(lp2166
F6604.5
aI11305
aF0.5842105263157895
asS'[(12, 4), (8, 3)]'
p2167
(lp2168
F6298.5
aI11459
aF0.5496552927829653
asS'[(6, 3), (4, 1)]'
p2169
(lp2170
F4323.0
aI11203
aF0.3858787824689815
asS'[(5, 3), (7, 3)]'
p2171
(lp2172
F4950.0
aI11260
aF0.43960923623445824
asS'[(14, 1), (11, 1)]'
p2173
(lp2174
F7451.5
aI11441
aF0.6512979634647321
asS'[(12, 4), (3, 4)]'
p2175
(lp2176
F5487.0
aI11234
aF0.4884279864696457
asS'[(7, 4), (8, 1)]'
p2177
(lp2178
F5250.0
aI11238
aF0.4671649759743727
asS'[(13, 2), (9, 2)]'
p2179
(lp2180
F6746.0
aI11224
aF0.6010334996436208
asS'[(5, 4), (6, 4)]'
p2181
(lp2182
F5079.0
aI11240
aF0.45186832740213523
asS'[(12, 4), (7, 3)]'
p2183
(lp2184
F6042.0
aI11510
aF0.5249348392701998
asS'[(12, 2), (3, 4)]'
p2185
(lp2186
F5205.5
aI11329
aF0.45948450878276986
asS'[(5, 2), (11, 3)]'
p2187
(lp2188
F5321.0
aI11210
aF0.47466547725245317
asS'[(14, 4), (10, 2)]'
p2189
(lp2190
F7095.0
aI11335
aF0.6259373621526246
asS'[(8, 1), (11, 1)]'
p2191
(lp2192
F6417.0
aI11477
aF0.5591182364729459
asS'[(12, 1), (4, 2)]'
p2193
(lp2194
F5495.0
aI11287
aF0.4868432710197572
asS'[(2, 3), (10, 2)]'
p2195
(lp2196
F4552.0
aI11321
aF0.4020846214998675
asS'[(12, 3), (10, 2)]'
p2197
(lp2198
F6557.5
aI11341
aF0.5782117979014196
asS'[(11, 4), (8, 3)]'
p2199
(lp2200
F5967.0
aI11404
aF0.5232374605401613
asS'[(6, 2), (12, 1)]'
p2201
(lp2202
F5854.5
aI11367
aF0.5150435471100554
asS'[(8, 2), (10, 1)]'
p2203
(lp2204
F5918.0
aI11434
aF0.5175791499037957
asS'[(12, 4), (13, 3)]'
p2205
(lp2206
F7060.0
aI11299
aF0.6248340561111603
asS'[(9, 3), (9, 1)]'
p2207
(lp2208
F8129.5
aI11208
aF0.7253301213418987
asS'[(3, 4), (13, 1)]'
p2209
(lp2210
F5571.5
aI11368
aF0.49010380014074595
asS'[(2, 3), (4, 4)]'
p2211
(lp2212
F3623.5
aI11332
aF0.31975820684786443
asS'[(9, 1), (3, 1)]'
p2213
(lp2214
F4954.0
aI11395
aF0.43475208424747697
asS'[(13, 4), (14, 4)]'
p2215
(lp2216
F7808.5
aI11666
aF0.66933824789988
asS'[(13, 4), (12, 3)]'
p2217
(lp2218
F7066.5
aI11391
aF0.6203581775085594
asS'[(7, 2), (13, 1)]'
p2219
(lp2220
F6154.0
aI11185
aF0.5502011622708985
asS'[(10, 1), (3, 3)]'
p2221
(lp2222
F4650.5
aI11245
aF0.4135615829257448
asS'[(3, 3), (6, 3)]'
p2223
(lp2224
F4354.0
aI11284
aF0.3858560794044665
asS'[(6, 1), (8, 3)]'
p2225
(lp2226
F5073.5
aI11322
aF0.4481098745804628
asS'[(9, 3), (14, 1)]'
p2227
(lp2228
F6723.0
aI11106
aF0.6053484602917342
asS'[(10, 2), (5, 3)]'
p2229
(lp2230
F5054.5
aI11371
aF0.44450795884266997
asS'[(11, 2), (4, 2)]'
p2231
(lp2232
F5478.5
aI11288
aF0.48533841247342313
asS'[(6, 2), (10, 4)]'
p2233
(lp2234
F5247.0
aI11259
aF0.4660271782573941
asS'[(4, 1), (9, 3)]'
p2235
(lp2236
F4693.5
aI11277
aF0.41620111731843573
asS'[(4, 1), (10, 4)]'
p2237
(lp2238
F4839.5
aI11277
aF0.4291478230025716
asS'[(3, 4), (6, 3)]'
p2239
(lp2240
F4216.0
aI11532
aF0.3655913978494624
asS'[(6, 2), (14, 1)]'
p2241
(lp2242
F6417.0
aI11319
aF0.5669228730453221
asS'[(8, 2), (11, 2)]'
p2243
(lp2244
F6265.5
aI11416
aF0.5488349684653119
asS'[(12, 4), (5, 3)]'
p2245
(lp2246
F5616.0
aI11166
aF0.5029554003224073
asS'[(6, 1), (6, 3)]'
p2247
(lp2248
F7282.5
aI11425
aF0.637417943107221
asS'[(2, 4), (7, 1)]'
p2249
(lp2250
F3970.5
aI11396
aF0.3484117234117234
asS'[(10, 1), (8, 1)]'
p2251
(lp2252
F6018.0
aI11211
aF0.5367942199625368
asS'[(6, 2), (13, 1)]'
p2253
(lp2254
F6115.5
aI11284
aF0.5419620701878767
asS'[(3, 3), (7, 3)]'
p2255
(lp2256
F4494.5
aI11240
aF0.3998665480427046
asS'[(9, 3), (8, 2)]'
p2257
(lp2258
F5647.0
aI11436
aF0.49379153550192373
asS'[(6, 4), (2, 4)]'
p2259
(lp2260
F4273.5
aI11155
aF0.3831017480950247
asS'[(10, 2), (9, 1)]'
p2261
(lp2262
F6031.5
aI11323
aF0.5326768524242692
asS'[(4, 2), (2, 1)]'
p2263
(lp2264
F3603.0
aI11295
aF0.3189907038512616
asS'[(7, 4), (11, 4)]'
p2265
(lp2266
F6270.5
aI11613
aF0.5399552225953672
asS'[(12, 2), (3, 2)]'
p2267
(lp2268
F5571.0
aI11404
aF0.48851280252542967
asS'[(10, 1), (12, 1)]'
p2269
(lp2270
F6797.0
aI11370
aF0.5978012313104661
asS'[(7, 1), (8, 4)]'
p2271
(lp2272
F5330.5
aI11268
aF0.47306531771388
asS'[(14, 1), (10, 3)]'
p2273
(lp2274
F7071.0
aI11305
aF0.6254754533392304
asS'[(4, 1), (6, 4)]'
p2275
(lp2276
F4351.5
aI11440
aF0.38037587412587415
asS'[(11, 3), (13, 3)]'
p2277
(lp2278
F7320.0
aI11470
aF0.6381865736704446
asS'[(4, 2), (7, 1)]'
p2279
(lp2280
F4396.0
aI11204
aF0.3923598714744734
asS'[(11, 4), (6, 4)]'
p2281
(lp2282
F5932.5
aI11444
aF0.5183939182104159
asS'[(9, 4), (3, 1)]'
p2283
(lp2284
F4404.0
aI11480
aF0.38362369337979096
asS'[(6, 4), (7, 1)]'
p2285
(lp2286
F4946.0
aI11299
aF0.4377378529073369
asS'[(6, 3), (14, 4)]'
p2287
(lp2288
F6400.5
aI11163
aF0.5733673743617307
asS'[(5, 4), (6, 1)]'
p2289
(lp2290
F4674.0
aI11245
aF0.4156514006224989
asS'[(5, 1), (9, 3)]'
p2291
(lp2292
F4783.5
aI11077
aF0.4318407511058951
asS'[(9, 4), (13, 3)]'
p2293
(lp2294
F6695.0
aI11406
aF0.5869717692442574
asS'[(4, 1), (2, 1)]'
p2295
(lp2296
F4124.5
aI11481
aF0.3592457103039805
asS'[(12, 2), (6, 2)]'
p2297
(lp2298
F6050.5
aI11300
aF0.5354424778761062
asS'[(5, 1), (2, 4)]'
p2299
(lp2300
F3800.5
aI11282
aF0.3368640312001418
asS'[(12, 3), (4, 4)]'
p2301
(lp2302
F5493.5
aI11437
aF0.48032700883098717
asS'[(3, 4), (14, 2)]'
p2303
(lp2304
F5934.0
aI11180
aF0.5307692307692308
asS'[(6, 2), (3, 3)]'
p2305
(lp2306
F4169.0
aI11508
aF0.3622697254084115
asS'[(13, 1), (3, 1)]'
p2307
(lp2308
F5829.5
aI11132
aF0.5236704994610133
asS'[(5, 4), (11, 2)]'
p2309
(lp2310
F5364.0
aI11059
aF0.48503481327425624
asS'[(11, 1), (5, 4)]'
p2311
(lp2312
F5309.0
aI11230
aF0.47275155832591276
asS'[(2, 3), (9, 1)]'
p2313
(lp2314
F4428.5
aI11382
aF0.3890792479353365
asS'[(10, 4), (3, 3)]'
p2315
(lp2316
F4714.5
aI11215
aF0.42037449843958985
asS'[(14, 2), (13, 2)]'
p2317
(lp2318
F7616.0
aI11258
aF0.6764967134482146
asS'[(13, 2), (5, 2)]'
p2319
(lp2320
F6206.0
aI11298
aF0.5493007611966719
asS'[(4, 4), (14, 1)]'
p2321
(lp2322
F6112.0
aI11229
aF0.5443049247484193
asS'[(3, 2), (10, 3)]'
p2323
(lp2324
F4712.0
aI11239
aF0.4192543820624611
asS'[(13, 4), (9, 3)]'
p2325
(lp2326
F6496.0
aI11359
aF0.5718813275816533
asS'[(7, 1), (11, 4)]'
p2327
(lp2328
F5794.5
aI11361
aF0.5100343279640877
asS'[(10, 1), (2, 1)]'
p2329
(lp2330
F5028.5
aI11242
aF0.4472958548301014
asS'[(8, 2), (5, 3)]'
p2331
(lp2332
F4669.0
aI11117
aF0.41998740667446255
asS'[(9, 1), (7, 1)]'
p2333
(lp2334
F5608.5
aI11242
aF0.4988880982031667
asS'[(5, 2), (8, 4)]'
p2335
(lp2336
F4788.0
aI11373
aF0.42099709839092586
asS'[(5, 1), (12, 2)]'
p2337
(lp2338
F5699.5
aI11403
aF0.4998246075594142
asS'[(6, 3), (7, 1)]'
p2339
(lp2340
F5069.5
aI11496
aF0.4409794711203897
asS'[(10, 3), (2, 2)]'
p2341
(lp2342
F4712.0
aI11347
aF0.4152639464175553
asS'[(14, 2), (6, 1)]'
p2343
(lp2344
F6464.0
aI11376
aF0.5682137834036568
asS'[(4, 2), (8, 3)]'
p2345
(lp2346
F4429.5
aI11187
aF0.3959506570126039
asS'[(4, 4), (11, 1)]'
p2347
(lp2348
F5224.0
aI11360
aF0.45985915492957746
asS'[(9, 1), (2, 2)]'
p2349
(lp2350
F4448.0
aI11506
aF0.38658091430557967
asS'[(7, 2), (12, 4)]'
p2351
(lp2352
F5834.0
aI11236
aF0.5192239231043075
asS'[(9, 4), (10, 1)]'
p2353
(lp2354
F5934.0
aI11303
aF0.5249933645934708
asS'[(9, 2), (8, 3)]'
p2355
(lp2356
F5591.5
aI11420
aF0.4896234676007005
asS'[(5, 4), (13, 3)]'
p2357
(lp2358
F5994.5
aI11334
aF0.5288953590965237
asS'[(6, 2), (13, 4)]'
p2359
(lp2360
F6085.5
aI11370
aF0.5352242744063325
asS'[(13, 2), (6, 1)]'
p2361
(lp2362
F6169.0
aI11344
aF0.543811706629055
asS'[(7, 1), (13, 4)]'
p2363
(lp2364
F6286.0
aI11488
aF0.5471796657381616
asS'[(11, 1), (10, 2)]'
p2365
(lp2366
F6380.5
aI11381
aF0.5606273613917934
asS'[(8, 2), (4, 1)]'
p2367
(lp2368
F4582.0
aI11538
aF0.39712255156872944
asS'[(10, 3), (4, 3)]'
p2369
(lp2370
F5149.5
aI11234
aF0.4583852590350721
asS'[(5, 1), (4, 3)]'
p2371
(lp2372
F4259.0
aI11328
aF0.3759710451977401
asS'[(9, 1), (6, 2)]'
p2373
(lp2374
F5177.0
aI11222
aF0.4613259668508287
asS'[(4, 2), (12, 2)]'
p2375
(lp2376
F5772.5
aI11527
aF0.5007807755703999
asS'[(11, 3), (6, 4)]'
p2377
(lp2378
F5373.0
aI11187
aF0.48028962188254226
asS'[(9, 4), (3, 4)]'
p2379
(lp2380
F4813.5
aI11339
aF0.42450833406826
asS'[(9, 2), (12, 2)]'
p2381
(lp2382
F6669.0
aI11263
aF0.5921157773239811
asS'[(4, 1), (5, 2)]'
p2383
(lp2384
F4209.0
aI11338
aF0.3712294937378726
asS'[(3, 1), (11, 2)]'
p2385
(lp2386
F4955.5
aI11337
aF0.43710858251742085
asS'[(9, 2), (5, 4)]'
p2387
(lp2388
F4788.0
aI11194
aF0.4277291406110416
asS'[(4, 1), (13, 2)]'
p2389
(lp2390
F5703.0
aI11230
aF0.5078361531611755
asS'[(5, 3), (3, 4)]'
p2391
(lp2392
F4034.5
aI11356
aF0.35527474462839026
asS'[(2, 3), (3, 2)]'
p2393
(lp2394
F3554.5
aI11342
aF0.31339269970022926
asS'[(2, 2), (10, 1)]'
p2395
(lp2396
F4647.0
aI11298
aF0.411311736590547
asS'[(10, 3), (12, 4)]'
p2397
(lp2398
F6442.0
aI11122
aF0.579212371875562
asS'[(2, 3), (14, 4)]'
p2399
(lp2400
F5932.0
aI11463
aF0.517491058187211
asS'[(3, 2), (4, 3)]'
p2401
(lp2402
F3750.5
aI11364
aF0.33003343892995424
asS'[(2, 2), (9, 1)]'
p2403
(lp2404
F4352.0
aI11423
aF0.38098573054364004
asS'[(9, 3), (9, 2)]'
p2405
(lp2406
F8282.0
aI11336
aF0.7305928016937191
asS'[(11, 3), (12, 4)]'
p2407
(lp2408
F6677.0
aI11254
aF0.5933001599431313
asS'[(5, 2), (2, 3)]'
p2409
(lp2410
F3791.0
aI11360
aF0.33371478873239435
asS'[(7, 3), (14, 3)]'
p2411
(lp2412
F6836.0
aI11186
aF0.6111210441623458
asS'[(7, 1), (4, 2)]'
p2413
(lp2414
F4453.5
aI11326
aF0.39321031255518274
asS'[(11, 4), (4, 1)]'
p2415
(lp2416
F5253.5
aI11599
aF0.45292697646348823
asS'[(12, 2), (7, 3)]'
p2417
(lp2418
F5751.5
aI11146
aF0.5160147137986721
asS'[(8, 3), (12, 4)]'
p2419
(lp2420
F6200.5
aI11456
aF0.5412447625698324
asS'[(9, 4), (3, 2)]'
p2421
(lp2422
F4325.5
aI11238
aF0.38489944830040934
asS'[(9, 2), (12, 4)]'
p2423
(lp2424
F6373.5
aI11386
aF0.5597663797646232
asS'[(6, 1), (10, 2)]'
p2425
(lp2426
F5308.0
aI11369
aF0.46688363092620283
asS'[(5, 3), (2, 3)]'
p2427
(lp2428
F4346.0
aI11587
aF0.37507551566410635
asS'[(11, 1), (9, 1)]'
p2429
(lp2430
F6251.0
aI11133
aF0.5614838767627773
asS'[(13, 2), (12, 1)]'
p2431
(lp2432
F6841.5
aI11126
aF0.6149110192342261
asS'[(4, 1), (11, 3)]'
p2433
(lp2434
F5114.0
aI11273
aF0.453650314911736
asS'[(10, 4), (2, 3)]'
p2435
(lp2436
F4645.5
aI11269
aF0.41223711065755614
asS'[(14, 2), (5, 2)]'
p2437
(lp2438
F6500.0
aI11271
aF0.5767012687427913
asS'[(2, 1), (5, 2)]'
p2439
(lp2440
F3769.5
aI11231
aF0.3356335143798415
asS'[(8, 4), (13, 4)]'
p2441
(lp2442
F6769.5
aI11527
aF0.5872733582024812
asS'[(10, 4), (8, 2)]'
p2443
(lp2444
F5841.5
aI11510
aF0.5075152041702867
asS'[(9, 2), (13, 2)]'
p2445
(lp2446
F6762.0
aI11331
aF0.5967699232194864
asS'[(10, 4), (12, 2)]'
p2447
(lp2448
F6638.5
aI11377
aF0.583501801880988
asS'[(8, 4), (13, 2)]'
p2449
(lp2450
F6403.5
aI11259
aF0.5687450039968026
asS'[(14, 1), (6, 1)]'
p2451
(lp2452
F6681.0
aI11281
aF0.592234730963567
asS'[(9, 3), (2, 2)]'
p2453
(lp2454
F4337.5
aI11363
aF0.38172137639707826
asS'[(8, 3), (5, 2)]'
p2455
(lp2456
F4775.5
aI11405
aF0.41871985971065323
asS'[(9, 4), (4, 2)]'
p2457
(lp2458
F4555.0
aI11100
aF0.4103603603603604
asS'[(4, 4), (2, 3)]'
p2459
(lp2460
F3674.0
aI11329
aF0.32430046782593347
asS'[(10, 4), (4, 2)]'
p2461
(lp2462
F4852.5
aI11346
aF0.42768376520359597
asS'[(12, 2), (4, 1)]'
p2463
(lp2464
F5461.5
aI11492
aF0.47524364775496
asS'[(12, 3), (2, 1)]'
p2465
(lp2466
F5137.0
aI11227
aF0.4575576734657522
asS'[(14, 3), (2, 3)]'
p2467
(lp2468
F6155.0
aI11288
aF0.5452693125442948
asS'[(2, 2), (6, 3)]'
p2469
(lp2470
F3833.0
aI11244
aF0.3408929206688011
asS'[(7, 2), (11, 4)]'
p2471
(lp2472
F5703.0
aI11334
aF0.5031762837480148
asS'[(10, 4), (2, 4)]'
p2473
(lp2474
F4958.0
aI11153
aF0.4445440688603963
asS'[(3, 2), (2, 1)]'
p2475
(lp2476
F3552.5
aI11382
aF0.31211562115621155
asS'[(9, 2), (5, 2)]'
p2477
(lp2478
F5190.5
aI11322
aF0.4584437378555026
asS'[(6, 1), (2, 4)]'
p2479
(lp2480
F3977.5
aI11352
aF0.3503787878787879
asS'[(2, 4), (13, 3)]'
p2481
(lp2482
F5522.5
aI11197
aF0.4932124676252568
asS'[(3, 4), (2, 1)]'
p2483
(lp2484
F3543.5
aI11241
aF0.3152299617471755
asS'[(4, 3), (14, 2)]'
p2485
(lp2486
F5893.5
aI11148
aF0.528659849300323
asS'[(5, 3), (11, 3)]'
p2487
(lp2488
F5750.0
aI11473
aF0.5011766756733199
asS'[(11, 4), (6, 2)]'
p2489
(lp2490
F5494.5
aI11135
aF0.49344409519533006
asS'[(8, 2), (6, 4)]'
p2491
(lp2492
F5095.5
aI11292
aF0.45124867162592985
asS'[(8, 3), (10, 4)]'
p2493
(lp2494
F5831.0
aI11289
aF0.5165205066879263
asS'[(4, 4), (6, 3)]'
p2495
(lp2496
F4273.5
aI11223
aF0.3807805399625768
asS'[(12, 3), (9, 3)]'
p2497
(lp2498
F6635.0
aI11356
aF0.5842726312081719
asS'[(4, 3), (10, 1)]'
p2499
(lp2500
F4899.5
aI11440
aF0.428277972027972
asS'[(6, 3), (8, 4)]'
p2501
(lp2502
F4999.0
aI11246
aF0.4445136048372755
asS'[(10, 2), (5, 4)]'
p2503
(lp2504
F5113.0
aI11311
aF0.4520378392715056
asS'[(6, 3), (8, 1)]'
p2505
(lp2506
F5058.5
aI11434
aF0.4424086059121917
asS'[(4, 3), (10, 4)]'
p2507
(lp2508
F4958.5
aI11431
aF0.43377657247834833
asS'[(4, 2), (13, 3)]'
p2509
(lp2510
F5742.5
aI11365
aF0.5052793664760229
asS'[(11, 2), (4, 1)]'
p2511
(lp2512
F5243.0
aI11385
aF0.460518225735617
asS'[(8, 2), (7, 4)]'
p2513
(lp2514
F5329.0
aI11345
aF0.46972234464521817
asS'[(2, 1), (14, 1)]'
p2515
(lp2516
F6114.0
aI11128
aF0.5494248741912293
asS'[(9, 2), (2, 1)]'
p2517
(lp2518
F4441.0
aI11322
aF0.3922451863628334
asS'[(4, 4), (2, 1)]'
p2519
(lp2520
F3594.0
aI11281
aF0.31858877759063914
asS'[(6, 1), (3, 3)]'
p2521
(lp2522
F3969.0
aI11195
aF0.3545332737829388
asS'[(10, 1), (6, 3)]'
p2523
(lp2524
F5408.0
aI11456
aF0.4720670391061452
asS'[(5, 3), (14, 4)]'
p2525
(lp2526
F6354.0
aI11416
aF0.5565872459705676
asS'[(14, 3), (2, 1)]'
p2527
(lp2528
F5703.5
aI11173
aF0.5104716727826009
asS'[(2, 2), (6, 1)]'
p2529
(lp2530
F3979.0
aI11262
aF0.35331202273130885
asS'[(10, 1), (13, 4)]'
p2531
(lp2532
F6818.5
aI11235
aF0.6068980863373387
asS'[(7, 1), (10, 3)]'
p2533
(lp2534
F5527.0
aI11252
aF0.4912015641663704
asS'[(3, 4), (12, 1)]'
p2535
(lp2536
F5272.5
aI11263
aF0.4681257213886176
asS'[(8, 3), (2, 4)]'
p2537
(lp2538
F4156.0
aI11186
aF0.37153584838190595
asS'[(5, 3), (3, 1)]'
p2539
(lp2540
F3926.0
aI11167
aF0.35157159487776485
asS'[(5, 3), (11, 1)]'
p2541
(lp2542
F5254.0
aI11254
aF0.4668562288963924
asS'[(2, 4), (7, 4)]'
p2543
(lp2544
F4229.0
aI11270
aF0.3752440106477374
asS'[(8, 1), (3, 1)]'
p2545
(lp2546
F4696.5
aI11260
aF0.41709591474245117
asS'[(5, 4), (10, 3)]'
p2547
(lp2548
F5136.5
aI11285
aF0.45516171909614533
asS'[(7, 1), (5, 1)]'
p2549
(lp2550
F4960.0
aI11228
aF0.44175276095475596
asS'[(7, 1), (3, 2)]'
p2551
(lp2552
F4034.0
aI11199
aF0.36021073310116974
asS'[(9, 3), (7, 1)]'
p2553
(lp2554
F5380.5
aI11208
aF0.48005888650963596
asS'[(9, 4), (14, 3)]'
p2555
(lp2556
F6859.0
aI11354
aF0.6041042804298045
asS'[(4, 4), (13, 4)]'
p2557
(lp2558
F6066.5
aI11383
aF0.5329438636563296
asS'[(9, 1), (10, 2)]'
p2559
(lp2560
F6079.0
aI11348
aF0.5356891082129009
asS'[(13, 3), (3, 2)]'
p2561
(lp2562
F5719.0
aI11421
aF0.5007442430610279
asS'[(7, 4), (12, 3)]'
p2563
(lp2564
F6008.5
aI11313
aF0.5311146468664368
asS'[(4, 2), (10, 1)]'
p2565
(lp2566
F4821.0
aI11154
aF0.43222162452931684
asS'[(8, 1), (13, 4)]'
p2567
(lp2568
F6323.5
aI11317
aF0.5587611557833349
asS'[(4, 2), (8, 1)]'
p2569
(lp2570
F4597.0
aI11363
aF0.4045586552846959
asS'[(13, 1), (9, 1)]'
p2571
(lp2572
F6652.0
aI11151
aF0.5965384270469016
asS'[(6, 3), (11, 2)]'
p2573
(lp2574
F5599.0
aI11341
aF0.49369544131910764
asS'[(6, 1), (9, 3)]'
p2575
(lp2576
F5168.0
aI11286
aF0.45791245791245794
asS'[(14, 3), (6, 1)]'
p2577
(lp2578
F6436.0
aI11355
aF0.5667987670629678
asS'[(2, 2), (2, 1)]'
p2579
(lp2580
F5713.0
aI11158
aF0.5120093206667862
asS'[(12, 4), (5, 4)]'
p2581
(lp2582
F5803.5
aI11157
aF0.5201667114815811
asS'[(8, 1), (3, 3)]'
p2583
(lp2584
F4241.0
aI11252
aF0.3769107714184145
asS'[(13, 3), (12, 3)]'
p2585
(lp2586
F7264.5
aI11350
aF0.6400440528634361
asS'[(3, 3), (14, 4)]'
p2587
(lp2588
F5864.0
aI11167
aF0.5251186531745321
asS'[(13, 3), (3, 4)]'
p2589
(lp2590
F5683.5
aI11322
aF0.5019872813990461
asS'[(6, 2), (14, 2)]'
p2591
(lp2592
F6730.5
aI11288
aF0.5962526576895819
asS'[(3, 2), (7, 3)]'
p2593
(lp2594
F4051.0
aI11289
aF0.3588448932589246
asS'[(7, 1), (2, 3)]'
p2595
(lp2596
F4004.5
aI11336
aF0.35325511644318985
asS'[(5, 1), (14, 4)]'
p2597
(lp2598
F6392.0
aI11421
aF0.5596707818930041
asS'[(7, 3), (14, 2)]'
p2599
(lp2600
F6764.0
aI11552
aF0.5855263157894737
asS'[(7, 2), (10, 2)]'
p2601
(lp2602
F5859.0
aI11324
aF0.5173966796185093
asS'[(2, 4), (4, 2)]'
p2603
(lp2604
F3699.0
aI11444
aF0.3232261447046487
asS'[(13, 4), (3, 3)]'
p2605
(lp2606
F5582.5
aI11309
aF0.49363338933592715
asS'[(2, 4), (12, 3)]'
p2607
(lp2608
F5237.0
aI11250
aF0.4655111111111111
asS'[(4, 1), (3, 1)]'
p2609
(lp2610
F4122.0
aI11334
aF0.3636844891476972
asS'[(4, 2), (6, 3)]'
p2611
(lp2612
F4274.0
aI11169
aF0.38266630853254546
asS'[(6, 1), (2, 1)]'
p2613
(lp2614
F4314.5
aI11166
aF0.3863962027583736
asS'[(13, 4), (3, 4)]'
p2615
(lp2616
F5941.0
aI11316
aF0.5250088370448922
asS'[(10, 3), (14, 2)]'
p2617
(lp2618
F7164.0
aI11329
aF0.6323594315473563
asS'[(2, 1), (4, 4)]'
p2619
(lp2620
F3658.5
aI11481
aF0.31865691141886593
asS'[(4, 1), (12, 3)]'
p2621
(lp2622
F5480.5
aI11345
aF0.4830762450418687
asS'[(6, 3), (14, 2)]'
p2623
(lp2624
F6390.5
aI11177
aF0.5717544958396708
asS'[(2, 2), (14, 3)]'
p2625
(lp2626
F5823.0
aI11254
aF0.5174160298560512
asS'[(7, 3), (5, 3)]'
p2627
(lp2628
F5003.0
aI11430
aF0.4377077865266842
asS'[(2, 3), (10, 1)]'
p2629
(lp2630
F4620.0
aI11335
aF0.40758711954124394
asS'[(9, 1), (11, 1)]'
p2631
(lp2632
F6373.5
aI11304
aF0.5638269639065817
asS'[(6, 1), (10, 4)]'
p2633
(lp2634
F5317.5
aI11288
aF0.4710754783841247
asS'[(11, 3), (7, 1)]'
p2635
(lp2636
F5638.0
aI11187
aF0.5039778314114597
asS'[(3, 1), (13, 1)]'
p2637
(lp2638
F5886.0
aI11265
aF0.5225033288948069
asS'[(4, 1), (7, 1)]'
p2639
(lp2640
F4694.0
aI11340
aF0.4139329805996473
asS'[(12, 2), (6, 1)]'
p2641
(lp2642
F5803.5
aI11264
aF0.5152254971590909
asS'[(10, 1), (10, 4)]'
p2643
(lp2644
F8476.5
aI11281
aF0.7513961528233313
asS'[(7, 3), (12, 2)]'
p2645
(lp2646
F6006.0
aI11409
aF0.5264265053904812
asS'[(6, 2), (5, 4)]'
p2647
(lp2648
F4654.5
aI11310
aF0.4115384615384615
asS'[(5, 1), (10, 3)]'
p2649
(lp2650
F5068.5
aI11248
aF0.4506134423897582
asS'[(8, 2), (14, 3)]'
p2651
(lp2652
F6815.0
aI11338
aF0.6010760275180808
asS'[(13, 4), (6, 2)]'
p2653
(lp2654
F5996.5
aI11247
aF0.5331643993953943
asS'[(4, 1), (6, 3)]'
p2655
(lp2656
F4423.5
aI11399
aF0.388060356171594
asS'[(11, 1), (5, 2)]'
p2657
(lp2658
F5356.5
aI11328
aF0.4728548728813559
asS'[(12, 4), (11, 4)]'
p2659
(lp2660
F6910.5
aI11340
aF0.6093915343915344
asS'[(5, 2), (8, 3)]'
p2661
(lp2662
F4804.0
aI11381
aF0.4221070204727177
asS'[(6, 1), (10, 3)]'
p2663
(lp2664
F5226.5
aI11149
aF0.4687864382455826
asS'[(7, 2), (3, 4)]'
p2665
(lp2666
F4140.0
aI11354
aF0.3646292055663202
asS'[(11, 4), (12, 1)]'
p2667
(lp2668
F6539.0
aI11133
aF0.5873529147579268
asS'[(11, 4), (14, 2)]'
p2669
(lp2670
F7247.0
aI11335
aF0.639347154830172
asS'[(8, 2), (9, 2)]'
p2671
(lp2672
F5800.5
aI11218
aF0.5170707791050098
asS'[(11, 3), (10, 2)]'
p2673
(lp2674
F6406.5
aI11352
aF0.5643498942917548
asS'[(11, 3), (14, 3)]'
p2675
(lp2676
F7484.5
aI11406
aF0.6561897247062949
asS'[(12, 1), (13, 1)]'
p2677
(lp2678
F7033.0
aI11049
aF0.6365281925966151
asS'[(12, 4), (2, 4)]'
p2679
(lp2680
F5519.0
aI11249
aF0.4906213885678727
asS'[(9, 1), (11, 3)]'
p2681
(lp2682
F6145.0
aI11276
aF0.5449627527492018
asS'[(14, 4), (2, 4)]'
p2683
(lp2684
F5957.0
aI10942
aF0.5444160116980442
asS'[(4, 1), (6, 1)]'
p2685
(lp2686
F4741.0
aI11313
aF0.41907539998232124
asS'[(3, 1), (12, 1)]'
p2687
(lp2688
F5645.5
aI11295
aF0.49982293050022136
asS'[(2, 2), (10, 4)]'
p2689
(lp2690
F4658.5
aI11251
aF0.41405208425917694
asS'[(5, 1), (7, 2)]'
p2691
(lp2692
F4554.5
aI11255
aF0.40466459351399375
asS'[(6, 4), (13, 3)]'
p2693
(lp2694
F6089.5
aI11214
aF0.5430265739254503
asS'[(10, 3), (3, 3)]'
p2695
(lp2696
F5223.5
aI11395
aF0.45840280824923213
asS'[(12, 4), (10, 3)]'
p2697
(lp2698
F6611.0
aI11245
aF0.5879057358826145
asS'[(13, 2), (14, 4)]'
p2699
(lp2700
F7268.5
aI11125
aF0.6533483146067416
asS'[(13, 4), (6, 4)]'
p2701
(lp2702
F6335.5
aI11187
aF0.566326986680969
asS'[(4, 2), (8, 4)]'
p2703
(lp2704
F4472.0
aI11151
aF0.40104026544704513
asS'[(9, 1), (8, 1)]'
p2705
(lp2706
F6021.5
aI11382
aF0.5290370760850466
asS'[(13, 1), (9, 4)]'
p2707
(lp2708
F6642.5
aI11387
aF0.5833406516202687
asS'[(10, 4), (6, 4)]'
p2709
(lp2710
F5575.5
aI11214
aF0.49719101123595505
asS'[(5, 1), (4, 4)]'
p2711
(lp2712
F4237.5
aI11377
aF0.37246198470598574
asS'[(8, 3), (6, 1)]'
p2713
(lp2714
F5097.5
aI11392
aF0.4474631320224719
asS'[(7, 1), (13, 3)]'
p2715
(lp2716
F6373.5
aI11456
aF0.5563460195530726
asS'[(12, 1), (8, 1)]'
p2717
(lp2718
F6416.0
aI11329
aF0.5663341866007591
asS'[(4, 4), (6, 1)]'
p2719
(lp2720
F4264.0
aI11212
aF0.3803068141277203
asS'[(11, 4), (13, 2)]'
p2721
(lp2722
F6862.0
aI11217
aF0.6117500222875992
asS'[(12, 1), (8, 4)]'
p2723
(lp2724
F6157.5
aI11258
aF0.54694439509682
asS'[(9, 3), (4, 1)]'
p2725
(lp2726
F4757.5
aI11424
aF0.4164478291316527
asS'[(4, 4), (5, 3)]'
p2727
(lp2728
F4265.0
aI11364
aF0.3753079901443154
asS'[(2, 1), (14, 3)]'
p2729
(lp2730
F5840.5
aI11245
aF0.5193863939528679
asS'[(5, 3), (5, 4)]'
p2731
(lp2732
F6827.5
aI11345
aF0.6018069634200088
asS'[(10, 1), (7, 3)]'
p2733
(lp2734
F5616.0
aI11270
aF0.49831410825199646
asS'[(5, 3), (3, 3)]'
p2735
(lp2736
F4323.5
aI11307
aF0.3823737507738569
asS'[(11, 3), (2, 1)]'
p2737
(lp2738
F4921.0
aI11294
aF0.4357180803966708
asS'[(8, 1), (7, 3)]'
p2739
(lp2740
F5347.0
aI11511
aF0.4645122057162714
asS'[(8, 4), (8, 1)]'
p2741
(lp2742
F7838.0
aI11259
aF0.6961541877609024
asS'[(12, 4), (6, 2)]'
p2743
(lp2744
F6004.0
aI11443
aF0.5246875819278162
asS'[(13, 4), (7, 4)]'
p2745
(lp2746
F6619.5
aI11400
aF0.5806578947368422
asS'[(5, 3), (6, 1)]'
p2747
(lp2748
F4677.0
aI11249
aF0.415770290692506
asS'[(12, 2), (13, 3)]'
p2749
(lp2750
F7209.5
aI11557
aF0.6238210608289348
asS'[(9, 3), (10, 2)]'
p2751
(lp2752
F5911.0
aI11189
aF0.528286710161766
asS'[(2, 2), (8, 3)]'
p2753
(lp2754
F4250.5
aI11350
aF0.3744933920704846
asS'[(4, 3), (4, 1)]'
p2755
(lp2756
F6492.5
aI11268
aF0.5761892083777068
asS'[(14, 1), (13, 1)]'
p2757
(lp2758
F7576.0
aI11235
aF0.6743213173119715
asS'[(13, 1), (7, 4)]'
p2759
(lp2760
F6300.0
aI11413
aF0.5520021028651537
asS'[(3, 2), (8, 2)]'
p2761
(lp2762
F4684.0
aI11284
aF0.4151010280042538
asS'[(5, 2), (10, 4)]'
p2763
(lp2764
F4983.5
aI11238
aF0.443450791955864
asS'[(2, 4), (13, 4)]'
p2765
(lp2766
F5787.5
aI11391
aF0.5080765516635941
asS'[(12, 1), (12, 2)]'
p2767
(lp2768
F9302.5
aI11487
aF0.8098285017846261
asS'[(10, 2), (3, 3)]'
p2769
(lp2770
F4669.5
aI11278
aF0.41403617662706155
asS'[(10, 2), (7, 2)]'
p2771
(lp2772
F5949.5
aI11491
aF0.5177530241058219
asS'[(7, 3), (4, 2)]'
p2773
(lp2774
F4448.0
aI11457
aF0.3882342672601903
asS'[(5, 3), (9, 3)]'
p2775
(lp2776
F5359.5
aI11360
aF0.4717869718309859
asS'[(5, 4), (7, 3)]'
p2777
(lp2778
F4768.5
aI11526
aF0.413716814159292
asS'[(3, 4), (4, 2)]'
p2779
(lp2780
F3746.0
aI11228
aF0.33363021018881367
asS'[(8, 1), (6, 3)]'
p2781
(lp2782
F4991.0
aI11253
aF0.44352617079889806
asS'[(6, 3), (2, 3)]'
p2783
(lp2784
F4224.0
aI11117
aF0.3799586219303769
asS'[(8, 3), (13, 4)]'
p2785
(lp2786
F6383.5
aI11257
aF0.5670693790530337
asS'[(5, 1), (8, 4)]'
p2787
(lp2788
F4714.5
aI11193
aF0.42120075046904315
asS'[(9, 4), (12, 4)]'
p2789
(lp2790
F6473.0
aI11055
aF0.5855269109000453
asS'[(14, 3), (13, 1)]'
p2791
(lp2792
F7452.0
aI11454
aF0.6506024096385542
asS'[(10, 2), (10, 1)]'
p2793
(lp2794
F8691.0
aI11390
aF0.7630377524143986
asS'[(12, 4), (4, 3)]'
p2795
(lp2796
F5534.5
aI11450
aF0.4833624454148472
asS'[(11, 1), (9, 2)]'
p2797
(lp2798
F6215.5
aI11349
aF0.5476693981848622
asS'[(2, 1), (8, 1)]'
p2799
(lp2800
F4570.5
aI11364
aF0.4021911298838437
asS'[(12, 2), (2, 4)]'
p2801
(lp2802
F5298.5
aI11443
aF0.4630341693611815
asS'[(4, 3), (2, 1)]'
p2803
(lp2804
F3546.0
aI11237
aF0.3155646524873187
asS'[(12, 1), (5, 3)]'
p2805
(lp2806
F5473.5
aI10989
aF0.4980889980889981
asS'[(14, 4), (11, 3)]'
p2807
(lp2808
F7212.0
aI11370
aF0.6343007915567282
asS'[(8, 4), (11, 1)]'
p2809
(lp2810
F5931.5
aI11368
aF0.5217716396903589
asS'[(8, 3), (8, 1)]'
p2811
(lp2812
F7938.5
aI11406
aF0.6959933368402595
asS'[(3, 4), (8, 4)]'
p2813
(lp2814
F4558.5
aI11478
aF0.397151071615264
asS'[(6, 1), (4, 4)]'
p2815
(lp2816
F4346.5
aI11337
aF0.38339066772514774
asS'[(6, 1), (2, 3)]'
p2817
(lp2818
F3815.5
aI11232
aF0.33969907407407407
asS'[(8, 3), (4, 4)]'
p2819
(lp2820
F4387.0
aI11216
aF0.3911376604850214
asS'[(7, 3), (9, 3)]'
p2821
(lp2822
F5730.5
aI11336
aF0.5055134086097389
asS'[(12, 4), (9, 4)]'
p2823
(lp2824
F6690.5
aI11438
aF0.5849361776534359
asS'[(8, 3), (6, 2)]'
p2825
(lp2826
F5065.0
aI11361
aF0.44582343103600036
asS'[(11, 2), (12, 2)]'
p2827
(lp2828
F6846.0
aI11225
aF0.6098886414253898
asS'[(6, 1), (7, 1)]'
p2829
(lp2830
F5192.0
aI11208
aF0.4632405424696645
asS'[(6, 2), (7, 1)]'
p2831
(lp2832
F4909.5
aI11328
aF0.4333951271186441
asS'[(10, 3), (10, 2)]'
p2833
(lp2834
F8709.0
aI11470
aF0.759285091543156
asS'[(2, 2), (6, 4)]'
p2835
(lp2836
F3905.0
aI11281
aF0.34615725556245014
asS'[(14, 3), (2, 4)]'
p2837
(lp2838
F5871.0
aI11187
aF0.524805577902923
asS'[(8, 4), (9, 1)]'
p2839
(lp2840
F5587.0
aI11421
aF0.48918658611330007
asS'[(4, 1), (3, 3)]'
p2841
(lp2842
F3739.5
aI11345
aF0.3296165711767298
asS'[(6, 3), (11, 1)]'
p2843
(lp2844
F5517.0
aI11249
aF0.490443594986221
asS'[(12, 3), (5, 2)]'
p2845
(lp2846
F5620.5
aI11358
aF0.4948494453248811
asS'[(10, 4), (11, 2)]'
p2847
(lp2848
F6406.5
aI11261
aF0.5689103987212504
asS'[(14, 4), (9, 2)]'
p2849
(lp2850
F6888.0
aI11335
aF0.607675341861491
asS'[(4, 4), (6, 4)]'
p2851
(lp2852
F4880.5
aI11602
aF0.4206602309946561
asS'[(12, 1), (3, 3)]'
p2853
(lp2854
F5292.5
aI11238
aF0.4709467876846414
asS'[(2, 3), (12, 2)]'
p2855
(lp2856
F5146.0
aI11294
aF0.45564016291836373
asS'[(6, 4), (4, 1)]'
p2857
(lp2858
F4413.5
aI11422
aF0.38640343197338467
asS'[(4, 2), (13, 4)]'
p2859
(lp2860
F5786.0
aI11409
aF0.5071434832150057
asS'[(5, 1), (8, 2)]'
p2861
(lp2862
F4627.5
aI11107
aF0.416629152786531
asS'[(9, 4), (12, 2)]'
p2863
(lp2864
F6301.5
aI11198
aF0.5627344168601536
asS'[(7, 2), (14, 3)]'
p2865
(lp2866
F6523.5
aI11209
aF0.5819876884646267
asS'[(3, 1), (8, 3)]'
p2867
(lp2868
F4149.0
aI11105
aF0.37361548851868526
asS'[(6, 4), (9, 1)]'
p2869
(lp2870
F5126.0
aI11211
aF0.4572295067344572
asS'[(6, 4), (14, 1)]'
p2871
(lp2872
F6459.5
aI11340
aF0.569620811287478
asS'[(2, 2), (6, 2)]'
p2873
(lp2874
F4386.5
aI11370
aF0.38579595426561125
asS'[(14, 3), (2, 2)]'
p2875
(lp2876
F5826.0
aI11326
aF0.5143916651951262
asS'[(8, 3), (13, 2)]'
p2877
(lp2878
F6338.5
aI11231
aF0.5643753895467901
asS'[(14, 3), (12, 1)]'
p2879
(lp2880
F7380.5
aI11428
aF0.6458260413020651
asS'[(6, 2), (4, 1)]'
p2881
(lp2882
F4332.0
aI11240
aF0.38540925266903914
asS'[(8, 1), (10, 1)]'
p2883
(lp2884
F6031.5
aI11328
aF0.5324417372881356
asS'[(7, 1), (9, 4)]'
p2885
(lp2886
F5393.0
aI11253
aF0.4792499777837021
asS'[(12, 2), (12, 4)]'
p2887
(lp2888
F9023.0
aI11129
aF0.8107646688830982
asS'[(5, 4), (4, 3)]'
p2889
(lp2890
F4295.0
aI11515
aF0.37299174989144596
asS'[(7, 3), (7, 2)]'
p2891
(lp2892
F7492.0
aI11217
aF0.6679147722207364
asS'[(5, 4), (8, 4)]'
p2893
(lp2894
F5103.0
aI11283
aF0.4522733315607551
asS'[(3, 3), (10, 3)]'
p2895
(lp2896
F5122.0
aI11364
aF0.4507215769095389
asS'[(11, 1), (4, 2)]'
p2897
(lp2898
F5190.5
aI11383
aF0.45598699815514365
asS'[(7, 1), (3, 1)]'
p2899
(lp2900
F4609.0
aI11280
aF0.40859929078014184
asS'[(6, 1), (14, 1)]'
p2901
(lp2902
F6716.0
aI11423
aF0.5879366191018122
asS'[(5, 2), (9, 4)]'
p2903
(lp2904
F5023.0
aI11319
aF0.44376711723650497
asS'[(11, 2), (6, 2)]'
p2905
(lp2906
F5804.0
aI11463
aF0.5063246968507371
asS'[(2, 2), (11, 3)]'
p2907
(lp2908
F4925.5
aI11150
aF0.4417488789237668
asS'[(12, 2), (9, 1)]'
p2909
(lp2910
F6417.0
aI11380
aF0.563884007029877
asS'[(12, 2), (4, 4)]'
p2911
(lp2912
F5591.5
aI11593
aF0.4823169153799707
asS'[(8, 3), (4, 2)]'
p2913
(lp2914
F4478.0
aI11257
aF0.3977969263569335
asS'[(13, 1), (4, 2)]'
p2915
(lp2916
F5926.5
aI11303
aF0.5243298239405467
asS'[(12, 4), (9, 2)]'
p2917
(lp2918
F6370.0
aI11293
aF0.5640662357212433
asS'[(5, 1), (5, 3)]'
p2919
(lp2920
F6867.5
aI11274
aF0.6091449352492461
asS'[(4, 3), (5, 4)]'
p2921
(lp2922
F4318.5
aI11552
aF0.37383137119113574
asS'[(4, 2), (8, 2)]'
p2923
(lp2924
F4925.5
aI11404
aF0.43190985619081024
asS'[(13, 4), (10, 4)]'
p2925
(lp2926
F7113.0
aI11356
aF0.6263649172243748
asS'[(14, 3), (10, 4)]'
p2927
(lp2928
F7046.0
aI11148
aF0.6320416218155723
asS'[(9, 1), (5, 2)]'
p2929
(lp2930
F4837.5
aI11314
aF0.4275676153438218
asS'[(2, 3), (12, 4)]'
p2931
(lp2932
F5208.0
aI11291
aF0.4612523248605084
asS'[(14, 3), (14, 1)]'
p2933
(lp2934
F9816.5
aI11351
aF0.8648136728041582
asS'[(5, 1), (6, 3)]'
p2935
(lp2936
F4601.0
aI11243
aF0.4092324112781286
asS'[(6, 3), (5, 4)]'
p2937
(lp2938
F4648.0
aI11220
aF0.4142602495543672
asS'[(13, 3), (11, 2)]'
p2939
(lp2940
F6909.0
aI11245
aF0.6144064028457092
asS'[(10, 3), (7, 3)]'
p2941
(lp2942
F5840.0
aI11328
aF0.5155367231638418
asS'[(7, 1), (2, 4)]'
p2943
(lp2944
F3838.5
aI11122
aF0.3451267757597554
asS'[(5, 4), (14, 1)]'
p2945
(lp2946
F6123.5
aI10978
aF0.5577974130078338
asS'[(9, 2), (2, 4)]'
p2947
(lp2948
F4351.5
aI11319
aF0.3844420885237212
asS'[(8, 3), (9, 2)]'
p2949
(lp2950
F5587.0
aI11195
aF0.49906208128628854
asS'[(13, 1), (6, 3)]'
p2951
(lp2952
F5909.0
aI11269
aF0.5243588605910019
asS'[(3, 1), (9, 1)]'
p2953
(lp2954
F4851.5
aI11375
aF0.4265054945054945
asS'[(7, 2), (6, 2)]'
p2955
(lp2956
F5373.5
aI11461
aF0.4688508856120757
asS'[(8, 4), (5, 1)]'
p2957
(lp2958
F4784.0
aI11350
aF0.4214977973568282
asS'[(7, 1), (7, 2)]'
p2959
(lp2960
F7517.0
aI11239
aF0.6688317465966723
asS'[(14, 2), (14, 4)]'
p2961
(lp2962
F9621.5
aI11155
aF0.8625280143433438
asS'[(11, 2), (6, 4)]'
p2963
(lp2964
F5392.5
aI11237
aF0.4798878704280502
asS'[(6, 2), (12, 4)]'
p2965
(lp2966
F5852.0
aI11310
aF0.5174182139699381
asS'[(2, 1), (4, 2)]'
p2967
(lp2968
F3588.5
aI11321
aF0.3169772988251921
asS'[(10, 3), (14, 4)]'
p2969
(lp2970
F7035.5
aI11277
aF0.6238804646625876
asS'[(11, 2), (2, 1)]'
p2971
(lp2972
F4901.0
aI11283
aF0.4343702915891164
asS'[(10, 3), (14, 1)]'
p2973
(lp2974
F7109.0
aI11362
aF0.6256820982221439
asS'[(13, 3), (14, 4)]'
p2975
(lp2976
F7487.5
aI11330
aF0.660856134157105
asS'[(4, 2), (10, 4)]'
p2977
(lp2978
F5019.0
aI11492
aF0.4367386007657501
asS'[(8, 3), (10, 2)]'
p2979
(lp2980
F5864.0
aI11479
aF0.5108458924993466
asS'[(10, 4), (6, 1)]'
p2981
(lp2982
F5329.0
aI11277
aF0.4725547574709586
asS'[(5, 4), (7, 4)]'
p2983
(lp2984
F5066.5
aI11224
aF0.45139878831076263
asS'[(6, 3), (12, 3)]'
p2985
(lp2986
F5999.5
aI11206
aF0.5353828306264501
asS'[(11, 4), (5, 1)]'
p2987
(lp2988
F5417.5
aI11455
aF0.4729375818419904
asS'[(12, 4), (11, 3)]'
p2989
(lp2990
F6906.0
aI11568
aF0.5969917012448133
asS'[(6, 2), (11, 1)]'
p2991
(lp2992
F5583.0
aI11480
aF0.4863240418118467
asS'[(3, 2), (6, 4)]'
p2993
(lp2994
F4028.5
aI11308
aF0.3562522108241953
asS'[(5, 3), (6, 2)]'
p2995
(lp2996
F4636.5
aI11482
aF0.40380595715032225
asS'[(3, 3), (9, 1)]'
p2997
(lp2998
F4412.0
aI11269
aF0.39151654982695894
asS'[(11, 3), (2, 2)]'
p2999
(lp3000
F4861.0
aI11265
aF0.43151353750554816
asS'[(9, 3), (10, 1)]'
p3001
(lp3002
F6019.0
aI11331
aF0.5311975995057806
asS'[(4, 3), (8, 1)]'
p3003
(lp3004
F4471.0
aI11194
aF0.39941039842772913
asS'[(12, 4), (12, 1)]'
p3005
(lp3006
F9040.5
aI11263
aF0.8026724673710379
asS'[(7, 2), (3, 2)]'
p3007
(lp3008
F4477.5
aI11124
aF0.40250809061488674
asS'[(2, 4), (11, 2)]'
p3009
(lp3010
F4929.0
aI11307
aF0.43592464844786416
asS'[(14, 1), (6, 2)]'
p3011
(lp3012
F6461.0
aI11290
aF0.5722763507528786
asS'[(11, 4), (14, 1)]'
p3013
(lp3014
F7054.5
aI10988
aF0.6420185657080452
asS'[(9, 4), (7, 2)]'
p3015
(lp3016
F5438.5
aI11372
aF0.4782360182905382
asS'[(14, 3), (8, 1)]'
p3017
(lp3018
F6780.5
aI11341
aF0.5978749669341328
asS'[(2, 2), (10, 3)]'
p3019
(lp3020
F4503.0
aI11151
aF0.4038202851762174
asS'[(14, 4), (4, 3)]'
p3021
(lp3022
F6202.0
aI11413
aF0.5434154034872514
asS'[(13, 3), (4, 1)]'
p3023
(lp3024
F5762.0
aI11281
aF0.510770321779984
asS'[(9, 3), (5, 2)]'
p3025
(lp3026
F5004.5
aI11338
aF0.44139177985535366
asS'[(14, 3), (13, 4)]'
p3027
(lp3028
F7597.5
aI11391
aF0.6669739267843035
asS'[(12, 2), (5, 2)]'
p3029
(lp3030
F5947.0
aI11297
aF0.5264229441444631
asS'[(8, 1), (12, 3)]'
p3031
(lp3032
F6118.0
aI11319
aF0.5405071119356833
asS'[(12, 3), (2, 2)]'
p3033
(lp3034
F5207.0
aI11379
aF0.45759732841198697
asS'[(5, 4), (6, 3)]'
p3035
(lp3036
F4569.0
aI11205
aF0.407764390896921
asS'[(3, 4), (5, 3)]'
p3037
(lp3038
F3827.5
aI11178
aF0.3424136697083557
asS'[(11, 1), (12, 1)]'
p3039
(lp3040
F6969.5
aI11379
aF0.6124879163371122
asS'[(5, 1), (14, 3)]'
p3041
(lp3042
F6353.5
aI11389
aF0.5578628501185354
asS'[(4, 3), (9, 2)]'
p3043
(lp3044
F4680.0
aI11227
aF0.41685223122828896
asS'[(13, 4), (14, 2)]'
p3045
(lp3046
F7498.0
aI11414
aF0.656912563518486
asS'[(7, 4), (6, 1)]'
p3047
(lp3048
F4937.0
aI11430
aF0.43193350831146105
asS'[(2, 4), (4, 1)]'
p3049
(lp3050
F3613.0
aI11397
aF0.3170132491006405
asS'[(4, 4), (6, 2)]'
p3051
(lp3052
F4537.5
aI11531
aF0.3935044662214899
asS'[(3, 4), (9, 1)]'
p3053
(lp3054
F4554.0
aI11434
aF0.39828581423823683
asS'[(9, 3), (10, 4)]'
p3055
(lp3056
F5955.5
aI11280
aF0.5279698581560284
asS'[(12, 1), (12, 3)]'
p3057
(lp3058
F9235.5
aI11428
aF0.8081466573328666
asS'[(11, 3), (7, 2)]'
p3059
(lp3060
F5626.0
aI11251
aF0.5000444404941783
asS'[(13, 2), (12, 3)]'
p3061
(lp3062
F7056.0
aI11299
aF0.6244800424816356
asS'[(4, 2), (12, 1)]'
p3063
(lp3064
F5513.0
aI11446
aF0.48165297920670974
asS'[(7, 4), (11, 1)]'
p3065
(lp3066
F5865.5
aI11410
aF0.5140666082383873
asS'[(13, 3), (14, 2)]'
p3067
(lp3068
F7401.0
aI11288
aF0.6556520198440822
asS'[(11, 2), (3, 3)]'
p3069
(lp3070
F5021.5
aI11256
aF0.4461176261549396
asS'[(2, 1), (13, 1)]'
p3071
(lp3072
F5865.5
aI11266
aF0.5206373158175039
asS'[(2, 3), (6, 1)]'
p3073
(lp3074
F4003.5
aI11521
aF0.34749587709400226
asS'[(7, 2), (5, 1)]'
p3075
(lp3076
F4654.0
aI11170
aF0.41665174574753805
asS'[(6, 4), (8, 2)]'
p3077
(lp3078
F4963.5
aI11265
aF0.44061251664447404
asS'[(6, 1), (7, 2)]'
p3079
(lp3080
F4908.5
aI11306
aF0.43415000884486116
asS'[(8, 3), (14, 4)]'
p3081
(lp3082
F6827.0
aI11398
aF0.5989647306545008
asS'[(11, 2), (12, 1)]'
p3083
(lp3084
F6625.5
aI11308
aF0.5859126282278033
asS'[(3, 1), (4, 2)]'
p3085
(lp3086
F3793.0
aI11274
aF0.33643782153627816
asS'[(8, 4), (3, 2)]'
p3087
(lp3088
F4196.5
aI11143
aF0.37660414610069104
asS'[(5, 2), (12, 1)]'
p3089
(lp3090
F5655.5
aI11339
aF0.4987653232207426
asS'[(5, 2), (10, 2)]'
p3091
(lp3092
F5408.5
aI11272
aF0.47981724627395317
asS'[(6, 4), (3, 2)]'
p3093
(lp3094
F4095.0
aI11374
aF0.36003165113416563
asS'[(14, 1), (13, 2)]'
p3095
(lp3096
F7461.0
aI11364
aF0.6565469904963042
asS'[(10, 2), (2, 1)]'
p3097
(lp3098
F4655.5
aI11367
aF0.4095627694202516
asS'[(3, 3), (7, 1)]'
p3099
(lp3100
F4081.5
aI11342
aF0.3598571680479633
asS'[(6, 2), (7, 2)]'
p3101
(lp3102
F5285.5
aI11351
aF0.4656417936745661
asS'[(2, 1), (2, 4)]'
p3103
(lp3104
F5814.5
aI11320
aF0.513648409893993
asS'[(4, 4), (8, 3)]'
p3105
(lp3106
F4444.5
aI11247
aF0.39517204587890103
asS'[(13, 3), (13, 1)]'
p3107
(lp3108
F9424.5
aI11353
aF0.8301330044922047
asS'[(14, 2), (7, 2)]'
p3109
(lp3110
F6782.5
aI11232
aF0.6038550569800569
asS'[(14, 1), (10, 1)]'
p3111
(lp3112
F7349.0
aI11326
aF0.6488610277238213
asS'[(13, 4), (13, 2)]'
p3113
(lp3114
F9425.0
aI11200
aF0.8415178571428571
asS'[(14, 1), (2, 1)]'
p3115
(lp3116
F6136.0
aI11290
aF0.5434898139946855
asS'[(12, 3), (3, 4)]'
p3117
(lp3118
F5104.5
aI11118
aF0.4591203453858608
asS'[(5, 4), (2, 2)]'
p3119
(lp3120
F3608.5
aI11185
aF0.32261957979436745
asS'[(12, 3), (12, 2)]'
p3121
(lp3122
F9290.5
aI11527
aF0.8059772707556172
asS'[(4, 2), (11, 2)]'
p3123
(lp3124
F5607.0
aI11332
aF0.4947935051182492
asS'[(7, 3), (4, 1)]'
p3125
(lp3126
F4397.0
aI11319
aF0.3884618782577966
asS'[(10, 1), (11, 3)]'
p3127
(lp3128
F6362.5
aI11259
aF0.5651034727773336
asS'[(8, 3), (13, 3)]'
p3129
(lp3130
F6651.0
aI11309
aF0.5881156600937306
asS'[(2, 1), (10, 1)]'
p3131
(lp3132
F5007.0
aI11267
aF0.4443951362385728
asS'[(2, 1), (12, 2)]'
p3133
(lp3134
F5261.5
aI11460
aF0.45911867364746944
asS'[(7, 4), (6, 3)]'
p3135
(lp3136
F4923.0
aI11143
aF0.4418020281791259
asS'[(10, 4), (10, 1)]'
p3137
(lp3138
F8417.0
aI11132
aF0.7561085159899389
asS'[(13, 1), (5, 3)]'
p3139
(lp3140
F5954.0
aI11379
aF0.5232445733368486
asS'[(9, 1), (8, 2)]'
p3141
(lp3142
F5784.0
aI11587
aF0.4991801156468456
asS'[(10, 1), (11, 1)]'
p3143
(lp3144
F6548.5
aI11193
aF0.5850531582238899
asS'[(5, 3), (14, 1)]'
p3145
(lp3146
F6261.5
aI11354
aF0.5514796547472256
asS'[(8, 4), (4, 2)]'
p3147
(lp3148
F4512.0
aI11334
aF0.39809422975119113
asS'[(12, 2), (10, 2)]'
p3149
(lp3150
F6877.0
aI11386
aF0.6039873528895134
asS'[(12, 2), (14, 3)]'
p3151
(lp3152
F7070.5
aI10987
aF0.6435332665877855
asS'[(4, 3), (13, 4)]'
p3153
(lp3154
F5844.5
aI11388
aF0.5132156656129259
asS'[(8, 4), (11, 2)]'
p3155
(lp3156
F5928.5
aI11297
aF0.5247853412410375
asS'[(4, 3), (2, 2)]'
p3157
(lp3158
F3567.0
aI11276
aF0.3163355799929053
asS'[(5, 4), (14, 3)]'
p3159
(lp3160
F6327.0
aI11341
aF0.557887311524557
asS'[(4, 4), (14, 3)]'
p3161
(lp3162
F5945.0
aI11149
aF0.5332316799712978
asS'[(12, 3), (7, 3)]'
p3163
(lp3164
F6191.5
aI11165
aF0.5545454545454546
asS'[(14, 2), (7, 4)]'
p3165
(lp3166
F6462.0
aI11189
aF0.5775315041558674
asS'[(7, 4), (2, 1)]'
p3167
(lp3168
F3902.0
aI11286
aF0.34573808258018784
asS'[(4, 3), (13, 3)]'
p3169
(lp3170
F6059.0
aI11214
aF0.540306759407883
asS'[(11, 3), (3, 2)]'
p3171
(lp3172
F5011.5
aI11273
aF0.444557792956622
asS'[(5, 2), (9, 2)]'
p3173
(lp3174
F5225.5
aI11287
aF0.46296624435190925
asS'[(4, 2), (2, 4)]'
p3175
(lp3176
F3667.0
aI11353
aF0.3229983264335418
asS'[(10, 3), (6, 1)]'
p3177
(lp3178
F5318.5
aI11232
aF0.47351317663817666
asS'[(12, 1), (11, 3)]'
p3179
(lp3180
F6514.0
aI11216
aF0.5807774607703281
asS'[(3, 2), (6, 2)]'
p3181
(lp3182
F4481.0
aI11363
aF0.3943500836046819
asS'[(9, 1), (12, 3)]'
p3183
(lp3184
F6252.0
aI11091
aF0.5637002975385448
asS'[(7, 4), (7, 2)]'
p3185
(lp3186
F7494.0
aI11283
aF0.6641850571656475
asS'[(6, 4), (4, 2)]'
p3187
(lp3188
F4413.5
aI11433
aF0.38603166273069184
asS'[(13, 2), (14, 3)]'
p3189
(lp3190
F7501.0
aI11422
aF0.6567151111889337
asS'[(10, 2), (12, 2)]'
p3191
(lp3192
F6678.0
aI11168
aF0.597958452722063
asS'[(10, 4), (14, 4)]'
p3193
(lp3194
F7366.0
aI11290
aF0.6524357838795394
asS'[(11, 1), (8, 1)]'
p3195
(lp3196
F6212.5
aI11200
aF0.5546875
asS'[(6, 4), (12, 3)]'
p3197
(lp3198
F5952.0
aI11417
aF0.521327844442498
asS'[(7, 2), (8, 4)]'
p3199
(lp3200
F5323.0
aI11273
aF0.4721901889470416
asS'[(10, 4), (7, 3)]'
p3201
(lp3202
F5494.5
aI11354
aF0.48392636956138807
asS'[(14, 1), (3, 1)]'
p3203
(lp3204
F6336.5
aI11352
aF0.5581835799859056
asS'[(4, 4), (9, 4)]'
p3205
(lp3206
F5041.0
aI11360
aF0.44375
asS'[(5, 3), (8, 1)]'
p3207
(lp3208
F4749.5
aI11245
aF0.4223654957759004
asS'[(7, 2), (13, 3)]'
p3209
(lp3210
F6442.5
aI11463
aF0.5620256477361947
asS'[(4, 3), (5, 1)]'
p3211
(lp3212
F4199.0
aI11176
aF0.3757158196134574
asS'[(13, 2), (6, 2)]'
p3213
(lp3214
F6513.0
aI11404
aF0.5711153981059277
asS'[(3, 1), (6, 2)]'
p3215
(lp3216
F4126.0
aI11227
aF0.36750690300169236
asS'[(13, 4), (10, 2)]'
p3217
(lp3218
F6888.5
aI11363
aF0.606221948429112
asS'[(11, 2), (11, 3)]'
p3219
(lp3220
F8962.0
aI11450
aF0.782707423580786
asS'[(3, 2), (13, 2)]'
p3221
(lp3222
F5840.5
aI11218
aF0.5206364770903904
asS'[(6, 4), (7, 2)]'
p3223
(lp3224
F4957.0
aI11263
aF0.4401136464529877
asS'[(14, 2), (11, 2)]'
p3225
(lp3226
F7385.0
aI11322
aF0.6522699169757993
asS'[(9, 2), (3, 2)]'
p3227
(lp3228
F4806.0
aI11239
aF0.427618115490702
asS'[(12, 1), (10, 4)]'
p3229
(lp3230
F6605.0
aI11349
aF0.5819896026081594
asS'[(7, 3), (6, 1)]'
p3231
(lp3232
F4986.5
aI11403
aF0.43729720249057263
asS'[(12, 3), (2, 4)]'
p3233
(lp3234
F5221.0
aI11390
aF0.45838454784899035
asS'[(5, 1), (12, 4)]'
p3235
(lp3236
F5670.5
aI11328
aF0.5005737994350282
asS'[(11, 4), (10, 2)]'
p3237
(lp3238
F6489.5
aI11542
aF0.5622509097210189
asS'[(11, 1), (3, 2)]'
p3239
(lp3240
F5033.5
aI11473
aF0.438725703826375
asS'[(11, 1), (14, 1)]'
p3241
(lp3242
F7392.5
aI11305
aF0.6539141972578505
asS'[(7, 2), (14, 1)]'
p3243
(lp3244
F6681.5
aI11332
aF0.5896134839392869
asS'[(3, 3), (2, 2)]'
p3245
(lp3246
F3392.0
aI11099
aF0.30561311829894583
asS'[(14, 3), (9, 3)]'
p3247
(lp3248
F6972.0
aI11143
aF0.6256842860988961
asS'[(14, 3), (5, 4)]'
p3249
(lp3250
F6305.0
aI11405
aF0.5528277071459886
asS'[(7, 3), (2, 3)]'
p3251
(lp3252
F4403.0
aI11264
aF0.3908913352272727
asS'[(13, 4), (8, 3)]'
p3253
(lp3254
F6308.5
aI11273
aF0.55961146101304
asS'[(4, 4), (9, 1)]'
p3255
(lp3256
F4668.0
aI11384
aF0.41004919184820804
asS'[(9, 4), (5, 1)]'
p3257
(lp3258
F4922.5
aI11169
aF0.4407288029366998
asS'[(2, 4), (6, 2)]'
p3259
(lp3260
F3965.0
aI11231
aF0.35304069094470664
asS'[(11, 4), (7, 2)]'
p3261
(lp3262
F5757.5
aI11290
aF0.5099645704162976
asS'[(14, 3), (14, 2)]'
p3263
(lp3264
F9889.5
aI11469
aF0.8622809312058592
asS'[(5, 2), (6, 3)]'
p3265
(lp3266
F4618.5
aI11350
aF0.40691629955947134
asS'[(7, 3), (10, 3)]'
p3267
(lp3268
F5778.0
aI11177
aF0.5169544600518923
asS'[(7, 4), (13, 4)]'
p3269
(lp3270
F6443.0
aI11256
aF0.5724058280028429
asS'[(13, 3), (5, 4)]'
p3271
(lp3272
F5968.0
aI11330
aF0.5267431597528685
asS'[(5, 1), (13, 3)]'
p3273
(lp3274
F5794.5
aI11141
aF0.5201059150884122
asS'[(14, 2), (2, 3)]'
p3275
(lp3276
F5888.0
aI11438
aF0.5147753103689456
asS'[(8, 3), (3, 1)]'
p3277
(lp3278
F4247.0
aI11416
aF0.3720217238962859
asS'[(9, 4), (4, 3)]'
p3279
(lp3280
F4712.0
aI11395
aF0.41351469942957436
asS'[(5, 3), (2, 4)]'
p3281
(lp3282
F3753.0
aI11433
aF0.32826029913408555
asS'[(14, 4), (5, 1)]'
p3283
(lp3284
F6241.5
aI11253
aF0.55465209277526
asS'[(8, 4), (5, 2)]'
p3285
(lp3286
F4825.0
aI11162
aF0.43227020247267517
asS'[(6, 1), (9, 1)]'
p3287
(lp3288
F5693.5
aI11370
aF0.5007475813544415
asS'[(9, 3), (6, 4)]'
p3289
(lp3290
F5312.5
aI11504
aF0.46179589707927676
asS'[(4, 2), (3, 3)]'
p3291
(lp3292
F3792.5
aI11170
aF0.33952551477170995
asS'[(10, 3), (11, 4)]'
p3293
(lp3294
F6396.5
aI11386
aF0.561786404356227
asS'[(6, 4), (9, 2)]'
p3295
(lp3296
F5154.5
aI11422
aF0.45127823498511643
asS'[(3, 2), (8, 3)]'
p3297
(lp3298
F4308.0
aI11464
aF0.3757850662944871
asS'[(14, 2), (5, 4)]'
p3299
(lp3300
F6271.0
aI11358
aF0.5521218524388096
asS'[(14, 4), (13, 2)]'
p3301
(lp3302
F7409.0
aI11362
aF0.6520859003696532
asS'[(6, 4), (12, 2)]'
p3303
(lp3304
F5800.5
aI11407
aF0.5085035504514772
asS'[(7, 4), (8, 2)]'
p3305
(lp3306
F5328.0
aI11417
aF0.46667250591223614
asS'[(12, 1), (13, 4)]'
p3307
(lp3308
F7135.5
aI11410
aF0.6253724802804558
asS'[(8, 4), (2, 3)]'
p3309
(lp3310
F4234.0
aI11388
aF0.3717948717948718
asS'[(7, 4), (10, 4)]'
p3311
(lp3312
F5854.5
aI11367
aF0.5150435471100554
asS'[(10, 3), (8, 3)]'
p3313
(lp3314
F5900.5
aI11126
aF0.5303343519683624
asS'[(10, 4), (13, 4)]'
p3315
(lp3316
F7083.0
aI11284
aF0.6277029422190713
asS'[(11, 4), (2, 3)]'
p3317
(lp3318
F4838.5
aI11292
aF0.42848919589089624
asS'[(2, 4), (6, 4)]'
p3319
(lp3320
F4240.0
aI11185
aF0.3790791238265534
asS'[(8, 2), (7, 2)]'
p3321
(lp3322
F5637.5
aI11396
aF0.4946911196911197
asS'[(6, 3), (8, 3)]'
p3323
(lp3324
F5366.0
aI11296
aF0.47503541076487255
asS'[(4, 3), (4, 4)]'
p3325
(lp3326
F6477.0
aI11220
aF0.5772727272727273
asS'[(14, 4), (5, 3)]'
p3327
(lp3328
F6195.5
aI11270
aF0.5497338065661047
asS'[(3, 2), (12, 3)]'
p3329
(lp3330
F5357.0
aI11329
aF0.47285726895577723
asS'[(2, 4), (2, 1)]'
p3331
(lp3332
F5927.5
aI11476
aF0.5165127222028582
asS'[(5, 4), (12, 1)]'
p3333
(lp3334
F5584.5
aI11213
aF0.4980379916168733
asS'[(9, 2), (9, 1)]'
p3335
(lp3336
F8173.5
aI11173
aF0.7315403204152868
asS'[(2, 1), (13, 2)]'
p3337
(lp3338
F5425.5
aI11286
aF0.4807283359914939
asS'[(12, 4), (12, 3)]'
p3339
(lp3340
F9288.5
aI11483
aF0.8088914046851868
asS'[(2, 1), (3, 1)]'
p3341
(lp3342
F3979.5
aI11330
aF0.3512356575463372
asS'[(5, 3), (8, 4)]'
p3343
(lp3344
F4729.5
aI11191
aF0.42261638816906444
asS'[(9, 1), (4, 3)]'
p3345
(lp3346
F4749.5
aI11305
aF0.4201238390092879
asS'[(14, 1), (7, 4)]'
p3347
(lp3348
F6525.0
aI11260
aF0.5794849023090586
asS'[(12, 4), (3, 1)]'
p3349
(lp3350
F5424.0
aI11502
aF0.4715701617110068
asS'[(3, 3), (9, 2)]'
p3351
(lp3352
F4440.5
aI11195
aF0.3966502903081733
asS'[(11, 4), (7, 4)]'
p3353
(lp3354
F5882.5
aI11183
aF0.5260216399892694
asS'[(11, 3), (8, 1)]'
p3355
(lp3356
F5912.0
aI11335
aF0.521570357300397
asS'[(2, 2), (5, 1)]'
p3357
(lp3358
F3777.0
aI11366
aF0.33230688016892485
asS'[(7, 2), (5, 3)]'
p3359
(lp3360
F4582.5
aI11300
aF0.40553097345132744
asS'[(14, 1), (2, 4)]'
p3361
(lp3362
F5941.5
aI11406
aF0.5209100473435034
asS'[(13, 1), (10, 2)]'
p3363
(lp3364
F6760.5
aI11173
aF0.6050747337331066
asS'[(9, 2), (11, 2)]'
p3365
(lp3366
F6363.5
aI11241
aF0.5660973223022863
asS'[(4, 3), (7, 1)]'
p3367
(lp3368
F4482.0
aI11411
aF0.3927788975549908
asS'[(6, 1), (3, 4)]'
p3369
(lp3370
F4044.5
aI11219
aF0.3605045012924503
asS'[(11, 4), (8, 2)]'
p3371
(lp3372
F5885.5
aI11226
aF0.5242740067699982
asS'[(7, 2), (6, 1)]'
p3373
(lp3374
F4960.0
aI11350
aF0.4370044052863436
asS'[(9, 3), (13, 4)]'
p3375
(lp3376
F6480.5
aI11339
aF0.5715230619984125
asS'[(6, 4), (3, 4)]'
p3377
(lp3378
F4380.5
aI11153
aF0.3927642786694163
asS'[(10, 2), (6, 3)]'
p3379
(lp3380
F5357.0
aI11255
aF0.4759662372278987
asS'[(3, 3), (3, 1)]'
p3381
(lp3382
F6117.5
aI11145
aF0.5489008524001795
asS'[(3, 3), (5, 2)]'
p3383
(lp3384
F3973.5
aI11359
aF0.34981072277489217
asS'[(13, 2), (13, 3)]'
p3385
(lp3386
F9335.5
aI11161
aF0.8364393871516889
asS'[(9, 4), (11, 3)]'
p3387
(lp3388
F6137.0
aI11288
aF0.5436746987951807
asS'[(5, 4), (3, 3)]'
p3389
(lp3390
F3866.0
aI11191
aF0.345456170136717
asS'[(8, 2), (10, 4)]'
p3391
(lp3392
F5770.5
aI11388
aF0.5067175974710221
asS'[(8, 1), (2, 3)]'
p3393
(lp3394
F4249.0
aI11430
aF0.37174103237095363
asS'[(4, 3), (12, 1)]'
p3395
(lp3396
F5515.5
aI11331
aF0.486761980407731
asS'[(5, 2), (12, 4)]'
p3397
(lp3398
F5646.0
aI11363
aF0.4968758250462026
asS'[(6, 4), (13, 1)]'
p3399
(lp3400
F6169.0
aI11377
aF0.5422343324250681
asS'[(3, 4), (9, 2)]'
p3401
(lp3402
F4600.0
aI11467
aF0.4011511293276358
asS'[(3, 3), (6, 2)]'
p3403
(lp3404
F4112.0
aI11520
aF0.35694444444444445
asS'[(7, 4), (5, 3)]'
p3405
(lp3406
F4773.5
aI11395
aF0.41891180342255374
asS'[(10, 3), (9, 1)]'
p3407
(lp3408
F6069.0
aI11417
aF0.5315757204169221
asS'[(13, 4), (11, 4)]'
p3409
(lp3410
F7016.5
aI11251
aF0.6236334548040174
asS'[(12, 1), (6, 3)]'
p3411
(lp3412
F5848.5
aI11296
aF0.5177496458923513
asS'[(3, 2), (2, 4)]'
p3413
(lp3414
F3489.0
aI11369
aF0.30688714926554667
asS'[(14, 4), (12, 3)]'
p3415
(lp3416
F7440.0
aI11407
aF0.6522310861751556
asS'[(8, 4), (9, 4)]'
p3417
(lp3418
F5975.5
aI11386
aF0.5248111716142632
asS'[(8, 4), (10, 4)]'
p3419
(lp3420
F6157.5
aI11380
aF0.5410808435852372
asS'[(4, 1), (10, 1)]'
p3421
(lp3422
F5221.5
aI11148
aF0.4683799784714747
asS'[(6, 2), (14, 4)]'
p3423
(lp3424
F6413.5
aI11150
aF0.5752017937219731
asS'[(6, 2), (8, 3)]'
p3425
(lp3426
F5060.5
aI11247
aF0.44994220681070507
asS'[(8, 4), (3, 1)]'
p3427
(lp3428
F4141.5
aI11334
aF0.3654049761778719
asS'[(7, 1), (8, 3)]'
p3429
(lp3430
F5291.5
aI11375
aF0.4651868131868132
asS'[(5, 1), (14, 2)]'
p3431
(lp3432
F6371.0
aI11453
aF0.5562734654675631
asS'[(5, 1), (3, 4)]'
p3433
(lp3434
F3990.5
aI11368
aF0.3510292047853624
asS'[(2, 1), (6, 1)]'
p3435
(lp3436
F4173.5
aI11187
aF0.3730669527129704
asS'[(14, 1), (7, 2)]'
p3437
(lp3438
F6477.0
aI11215
aF0.5775300936246099
asS'[(8, 2), (2, 4)]'
p3439
(lp3440
F4230.5
aI11240
aF0.37637900355871884
asS'[(13, 1), (11, 4)]'
p3441
(lp3442
F6885.5
aI11205
aF0.6145024542614904
asS'[(2, 4), (3, 3)]'
p3443
(lp3444
F3579.0
aI11468
aF0.31208580397628183
asS'[(5, 4), (5, 1)]'
p3445
(lp3446
F6891.5
aI11325
aF0.6085209713024282
asS'[(4, 2), (14, 1)]'
p3447
(lp3448
F6089.5
aI11296
aF0.5390846317280453
asS'[(6, 3), (10, 3)]'
p3449
(lp3450
F5820.0
aI11510
aF0.5056472632493484
asS'[(6, 4), (2, 1)]'
p3451
(lp3452
F3806.0
aI11150
aF0.3413452914798206
asS'[(12, 1), (14, 1)]'
p3453
(lp3454
F7621.0
aI11366
aF0.6705085342248812
asS'[(7, 4), (4, 2)]'
p3455
(lp3456
F4340.5
aI11270
aF0.3851375332741792
asS'[(10, 1), (9, 1)]'
p3457
(lp3458
F6242.0
aI11199
aF0.5573711938565944
asS'[(14, 4), (8, 3)]'
p3459
(lp3460
F6648.0
aI11212
aF0.5929361398501606
asS'[(9, 1), (5, 3)]'
p3461
(lp3462
F4855.5
aI11054
aF0.4392527591821965
asS'[(12, 2), (6, 3)]'
p3463
(lp3464
F5876.0
aI11465
aF0.5125163541212385
asS'[(12, 2), (8, 4)]'
p3465
(lp3466
F6106.5
aI11278
aF0.5414523851746763
asS'[(13, 2), (4, 1)]'
p3467
(lp3468
F5700.0
aI11227
aF0.507704640598557
asS'[(13, 4), (8, 1)]'
p3469
(lp3470
F6430.0
aI11393
aF0.5643816378478013
asS'[(14, 2), (3, 1)]'
p3471
(lp3472
F5984.5
aI11344
aF0.5275476022566996
asS'[(9, 4), (4, 1)]'
p3473
(lp3474
F4599.0
aI11346
aF0.40534108937070334
asS'[(5, 1), (2, 1)]'
p3475
(lp3476
F4074.0
aI11249
aF0.3621655258245177
asS'[(8, 2), (14, 1)]'
p3477
(lp3478
F6722.0
aI11335
aF0.5930304367004853
asS'[(9, 2), (7, 3)]'
p3479
(lp3480
F5459.5
aI11395
aF0.4791136463361123
asS'[(10, 4), (3, 2)]'
p3481
(lp3482
F4639.0
aI11288
aF0.4109673990077959
asS'[(3, 3), (14, 2)]'
p3483
(lp3484
F5888.0
aI11245
aF0.5236104935526901
asS'[(13, 2), (5, 3)]'
p3485
(lp3486
F5816.0
aI11224
aF0.5181753385602281
asS'[(3, 2), (10, 2)]'
p3487
(lp3488
F5181.0
aI11321
aF0.4576450843565056
asS'[(2, 3), (14, 1)]'
p3489
(lp3490
F5735.0
aI11129
aF0.5153203342618384
asS'[(3, 1), (7, 4)]'
p3491
(lp3492
F4160.0
aI11244
aF0.36997509782995375
asS'[(7, 1), (11, 1)]'
p3493
(lp3494
F5932.0
aI11273
aF0.5262130754901091
asS'[(12, 4), (13, 1)]'
p3495
(lp3496
F7001.0
aI11243
aF0.6226985679978654
asS'[(10, 3), (6, 2)]'
p3497
(lp3498
F5347.0
aI11143
aF0.47985282239971283
asS'[(13, 2), (5, 1)]'
p3499
(lp3500
F6049.5
aI11416
aF0.5299141555711282
asS'[(13, 3), (13, 4)]'
p3501
(lp3502
F9585.5
aI11429
aF0.8386997987575466
asS'[(14, 3), (4, 2)]'
p3503
(lp3504
F6129.5
aI11330
aF0.5409973521624007
asS'[(12, 3), (11, 3)]'
p3505
(lp3506
F6990.5
aI11298
aF0.6187378297043724
asS'[(4, 2), (5, 2)]'
p3507
(lp3508
F4627.0
aI11402
aF0.40580599894755304
asS'[(10, 4), (7, 4)]'
p3509
(lp3510
F5853.0
aI11282
aF0.5187909945045205
asS'[(13, 3), (6, 1)]'
p3511
(lp3512
F6093.5
aI11212
aF0.5434801997859436
asS'[(13, 2), (2, 1)]'
p3513
(lp3514
F5472.5
aI11309
aF0.4839066230435936
asS'[(12, 2), (8, 2)]'
p3515
(lp3516
F6342.0
aI11236
aF0.564435742257031
asS'[(8, 4), (12, 3)]'
p3517
(lp3518
F6336.0
aI11479
aF0.551964456834219
asS'[(12, 3), (12, 1)]'
p3519
(lp3520
F9182.0
aI11310
aF0.8118479221927498
asS'[(13, 4), (13, 1)]'
p3521
(lp3522
F9384.5
aI11234
aF0.8353658536585366
asS'[(10, 3), (4, 2)]'
p3523
(lp3524
F4976.0
aI11426
aF0.4354979870470856
asS'[(5, 3), (5, 2)]'
p3525
(lp3526
F6890.0
aI11317
aF0.608818591499514
asS'[(4, 4), (5, 1)]'
p3527
(lp3528
F4283.0
aI11454
aF0.37393050462720445
asS'[(4, 2), (12, 3)]'
p3529
(lp3530
F5527.5
aI11390
aF0.4852941176470588
asS'[(13, 4), (7, 2)]'
p3531
(lp3532
F6158.5
aI11273
aF0.5463053313226293
asS'[(13, 3), (10, 4)]'
p3533
(lp3534
F6790.5
aI11262
aF0.6029568460309004
asS'[(12, 4), (3, 3)]'
p3535
(lp3536
F5256.0
aI11247
aF0.46732461989863966
asS'[(5, 2), (3, 1)]'
p3537
(lp3538
F3931.5
aI11355
aF0.3462351387054161
asS'[(11, 1), (10, 4)]'
p3539
(lp3540
F6360.0
aI11157
aF0.5700457112126915
asS'[(3, 2), (14, 1)]'
p3541
(lp3542
F5895.5
aI11370
aF0.5185136323658751
asS'[(9, 2), (6, 1)]'
p3543
(lp3544
F5110.5
aI11199
aF0.45633538708813287
asS'[(5, 1), (12, 3)]'
p3545
(lp3546
F5676.0
aI11359
aF0.4996918742847082
asS'[(13, 1), (10, 4)]'
p3547
(lp3548
F6805.5
aI11239
aF0.605525402615891
asS'[(7, 4), (13, 1)]'
p3549
(lp3550
F6157.5
aI11112
aF0.5541306695464363
asS'[(8, 2), (9, 4)]'
p3551
(lp3552
F5657.5
aI11371
aF0.4975375956380266
asS'[(12, 2), (11, 3)]'
p3553
(lp3554
F6579.0
aI11095
aF0.5929698062190176
asS'[(3, 4), (4, 4)]'
p3555
(lp3556
F4223.5
aI11434
aF0.3693807941227917
asS'[(7, 3), (11, 3)]'
p3557
(lp3558
F6112.0
aI11334
aF0.5392623963296277
asS'[(5, 2), (7, 3)]'
p3559
(lp3560
F4576.5
aI11163
aF0.40997043805428646
asS'[(9, 3), (12, 3)]'
p3561
(lp3562
F6603.5
aI11232
aF0.5879184472934473
asS'[(8, 1), (6, 1)]'
p3563
(lp3564
F5370.5
aI11403
aF0.4709725510830483
asS'[(3, 1), (14, 2)]'
p3565
(lp3566
F5940.0
aI11363
aF0.5227492739593417
asS'[(10, 4), (12, 3)]'
p3567
(lp3568
F6581.0
aI11370
aF0.5788038698328936
asS'[(8, 1), (14, 3)]'
p3569
(lp3570
F6826.5
aI11416
aF0.5979765241765943
asS'[(9, 2), (14, 4)]'
p3571
(lp3572
F6836.0
aI11310
aF0.604420866489832
asS'[(13, 3), (9, 3)]'
p3573
(lp3574
F6822.5
aI11328
aF0.6022687146892656
asS'[(14, 1), (5, 2)]'
p3575
(lp3576
F6188.5
aI11218
aF0.551658049563202
asS'[(5, 3), (14, 3)]'
p3577
(lp3578
F6464.5
aI11148
aF0.5798797990670972
asS'[(7, 3), (5, 4)]'
p3579
(lp3580
F4712.5
aI11221
aF0.4199714820425987
asS'[(11, 4), (7, 1)]'
p3581
(lp3582
F5727.5
aI11229
aF0.510063229138837
asS'[(9, 4), (14, 2)]'
p3583
(lp3584
F6726.5
aI11149
aF0.6033276527042785
asS'[(7, 1), (9, 2)]'
p3585
(lp3586
F5384.0
aI11412
aF0.4717840869260428
asS'[(10, 4), (8, 3)]'
p3587
(lp3588
F5781.0
aI11331
aF0.5101932750860472
asS'[(3, 1), (5, 3)]'
p3589
(lp3590
F3855.0
aI11235
aF0.3431241655540721
asS'[(14, 3), (12, 4)]'
p3591
(lp3592
F7160.0
aI11105
aF0.644754615038271
asS'[(2, 4), (10, 3)]'
p3593
(lp3594
F4646.0
aI11290
aF0.4115146147032772
asS'[(14, 1), (9, 2)]'
p3595
(lp3596
F6760.0
aI11254
aF0.6006753154433979
asS'[(6, 1), (4, 2)]'
p3597
(lp3598
F4368.5
aI11472
aF0.3807967224546722
asS'[(6, 4), (6, 3)]'
p3599
(lp3600
F7206.0
aI11140
aF0.6468581687612208
asS'[(9, 3), (11, 3)]'
p3601
(lp3602
F6362.5
aI11208
aF0.567674875089222
asS'[(8, 4), (2, 4)]'
p3603
(lp3604
F4648.5
aI11461
aF0.4055928802024256
asS'[(10, 3), (10, 4)]'
p3605
(lp3606
F8577.0
aI11400
aF0.7523684210526316
asS'[(14, 2), (12, 3)]'
p3607
(lp3608
F7279.5
aI11254
aF0.6468366802914519
asS'[(14, 3), (11, 1)]'
p3609
(lp3610
F7116.5
aI11266
aF0.6316793893129771
asS'[(5, 3), (13, 1)]'
p3611
(lp3612
F5982.5
aI11353
aF0.5269532282216154
asS'[(5, 3), (11, 2)]'
p3613
(lp3614
F5401.0
aI11250
aF0.4800888888888889
asS'[(8, 4), (7, 2)]'
p3615
(lp3616
F5339.5
aI11270
aF0.47377994676131324
asS'[(5, 3), (4, 1)]'
p3617
(lp3618
F4189.5
aI11336
aF0.36957480592801695
asS'[(4, 1), (9, 1)]'
p3619
(lp3620
F4955.5
aI11409
aF0.43435007450258567
asS'[(7, 2), (8, 2)]'
p3621
(lp3622
F5526.0
aI11296
aF0.489199716713881
asS'[(8, 2), (4, 3)]'
p3623
(lp3624
F4582.0
aI11248
aF0.40736130867709813
asS'[(10, 1), (5, 2)]'
p3625
(lp3626
F5084.0
aI11448
aF0.4440950384346611
asS'[(10, 1), (3, 1)]'
p3627
(lp3628
F4991.5
aI11261
aF0.44325548352721783
asS'[(14, 3), (4, 4)]'
p3629
(lp3630
F5975.0
aI11257
aF0.5307808474726836
asS'[(6, 3), (4, 2)]'
p3631
(lp3632
F4366.5
aI11331
aF0.3853587503309505
asS'[(3, 2), (5, 3)]'
p3633
(lp3634
F4008.0
aI11393
aF0.3517949618186606
asS'[(9, 2), (11, 4)]'
p3635
(lp3636
F6065.0
aI11161
aF0.5434100887017292
asS'[(5, 4), (12, 2)]'
p3637
(lp3638
F5583.0
aI11300
aF0.494070796460177
asS'[(4, 2), (9, 2)]'
p3639
(lp3640
F4911.0
aI11208
aF0.43816916488222696
asS'[(6, 1), (3, 2)]'
p3641
(lp3642
F4123.0
aI11325
aF0.3640618101545254
asS'[(11, 4), (8, 4)]'
p3643
(lp3644
F6156.0
aI11208
aF0.5492505353319058
asS'[(2, 4), (7, 2)]'
p3645
(lp3646
F3927.0
aI11264
aF0.3486328125
asS'[(2, 1), (3, 2)]'
p3647
(lp3648
F3543.0
aI11301
aF0.31351207857711705
asS'[(10, 1), (6, 2)]'
p3649
(lp3650
F5338.5
aI11302
aF0.4723500265439745
asS'[(14, 1), (8, 3)]'
p3651
(lp3652
F7019.5
aI11670
aF0.6014995715509854
asS'[(3, 4), (7, 3)]'
p3653
(lp3654
F4140.5
aI11308
aF0.36615670321896004
asS'[(6, 2), (12, 2)]'
p3655
(lp3656
F6148.5
aI11231
aF0.5474579289466655
asS'[(14, 1), (11, 3)]'
p3657
(lp3658
F7256.0
aI11304
aF0.6418966737438075
asS'[(11, 2), (13, 3)]'
p3659
(lp3660
F6956.5
aI11282
aF0.6166016663712108
asS'[(14, 3), (6, 3)]'
p3661
(lp3662
F6726.0
aI11331
aF0.5935927985173418
asS'[(2, 2), (2, 3)]'
p3663
(lp3664
F5746.5
aI11156
aF0.5151039799211187
asS'[(2, 2), (12, 4)]'
p3665
(lp3666
F5206.0
aI11359
aF0.4583149925169469
asS'[(5, 2), (3, 4)]'
p3667
(lp3668
F3973.5
aI11492
aF0.34576226940480337
asS'[(11, 1), (4, 4)]'
p3669
(lp3670
F5097.0
aI11377
aF0.4480091412498901
asS'[(5, 4), (4, 1)]'
p3671
(lp3672
F4269.0
aI11460
aF0.3725130890052356
asS'[(8, 3), (3, 2)]'
p3673
(lp3674
F4219.5
aI11336
aF0.3722212420606916
asS'[(3, 2), (4, 4)]'
p3675
(lp3676
F3818.5
aI11316
aF0.33744255920820077
asS'[(5, 4), (12, 4)]'
p3677
(lp3678
F6096.0
aI11596
aF0.5256985167299069
asS'[(7, 1), (3, 3)]'
p3679
(lp3680
F4081.5
aI11249
aF0.3628322517557116
asS'[(10, 1), (2, 2)]'
p3681
(lp3682
F4685.5
aI11361
aF0.41241968136607693
asS'[(13, 2), (10, 2)]'
p3683
(lp3684
F7096.5
aI11293
aF0.6283981227308952
asS'[(12, 2), (4, 2)]'
p3685
(lp3686
F5779.0
aI11432
aF0.5055108467459762
asS'[(7, 4), (3, 2)]'
p3687
(lp3688
F3999.5
aI11275
aF0.3547228381374723
asS'[(3, 3), (5, 1)]'
p3689
(lp3690
F4036.0
aI11268
aF0.35818246361377354
asS'[(13, 4), (5, 2)]'
p3691
(lp3692
F5910.5
aI11363
aF0.5201531285752002
asS'[(7, 4), (5, 4)]'
p3693
(lp3694
F4896.5
aI11198
aF0.4372655831398464
asS'[(4, 4), (13, 1)]'
p3695
(lp3696
F5773.5
aI11303
aF0.5107935946208971
asS'[(11, 3), (3, 3)]'
p3697
(lp3698
F5281.5
aI11262
aF0.4689664358018114
asS'[(4, 3), (12, 2)]'
p3699
(lp3700
F5343.0
aI11279
aF0.47371220852912493
asS'[(9, 1), (5, 4)]'
p3701
(lp3702
F4959.5
aI11374
aF0.4360383330402673
asS'[(6, 3), (11, 3)]'
p3703
(lp3704
F5859.5
aI11458
aF0.5113894222377379
asS'[(12, 3), (5, 4)]'
p3705
(lp3706
F5551.5
aI11167
aF0.4971344138980926
asS'[(12, 4), (14, 3)]'
p3707
(lp3708
F7415.0
aI11483
aF0.6457371766959854
asS'[(6, 1), (5, 1)]'
p3709
(lp3710
F4917.5
aI11333
aF0.43390982087708463
asS'[(13, 3), (10, 3)]'
p3711
(lp3712
F7192.5
aI11458
aF0.6277273520684238
asS'[(8, 1), (3, 2)]'
p3713
(lp3714
F4176.5
aI11048
aF0.3780322230267922
asS'[(7, 3), (3, 4)]'
p3715
(lp3716
F4149.5
aI11362
aF0.3652085900369653
asS'[(12, 4), (5, 1)]'
p3717
(lp3718
F5639.0
aI11395
aF0.4948661693725318
asS'[(9, 2), (2, 2)]'
p3719
(lp3720
F4913.0
aI11409
aF0.430624945218687
asS'[(10, 4), (3, 1)]'
p3721
(lp3722
F4762.5
aI11307
aF0.4211992570973733
asS'[(3, 4), (3, 1)]'
p3723
(lp3724
F6128.0
aI11238
aF0.5452927567182773
asS'[(3, 3), (4, 4)]'
p3725
(lp3726
F3886.5
aI11336
aF0.3428458009880028
asS'[(11, 4), (3, 3)]'
p3727
(lp3728
F4983.0
aI11344
aF0.43926304654442877
asS'[(4, 2), (9, 4)]'
p3729
(lp3730
F4654.0
aI11258
aF0.4133949191685912
asS'[(3, 4), (6, 1)]'
p3731
(lp3732
F4017.5
aI11411
aF0.3520725615634037
asS'[(6, 2), (14, 3)]'
p3733
(lp3734
F6565.0
aI11387
aF0.5765346447703522
asS'[(7, 1), (7, 4)]'
p3735
(lp3736
F7621.0
aI11307
aF0.6740072521446892
asS'[(10, 3), (13, 4)]'
p3737
(lp3738
F6712.0
aI11188
aF0.5999284948158742
asS'[(12, 3), (4, 3)]'
p3739
(lp3740
F5746.0
aI11416
aF0.5033286615276804
asS'[(8, 1), (12, 1)]'
p3741
(lp3742
F6395.5
aI11279
aF0.5670272187250642
asS'[(4, 2), (6, 2)]'
p3743
(lp3744
F4626.5
aI11147
aF0.41504440656678926
asS'[(13, 4), (5, 4)]'
p3745
(lp3746
F6253.5
aI11387
aF0.5491788882058488
asS'[(10, 3), (14, 3)]'
p3747
(lp3748
F7305.0
aI11394
aF0.6411269088994207
asS'[(7, 4), (2, 2)]'
p3749
(lp3750
F3802.5
aI11264
aF0.3375799005681818
asS'[(4, 3), (7, 2)]'
p3751
(lp3752
F4427.0
aI11305
aF0.3915966386554622
asS'[(9, 2), (11, 1)]'
p3753
(lp3754
F6226.0
aI11430
aF0.5447069116360455
asS'[(4, 1), (12, 2)]'
p3755
(lp3756
F5335.5
aI11160
aF0.47809139784946236
asS'[(4, 2), (4, 3)]'
p3757
(lp3758
F6546.0
aI11128
aF0.5882458662832495
asS'[(10, 1), (14, 3)]'
p3759
(lp3760
F7228.0
aI11436
aF0.6320391745365512
asS'[(4, 2), (10, 2)]'
p3761
(lp3762
F5403.0
aI11528
aF0.4686849410131853
asS'[(10, 4), (6, 3)]'
p3763
(lp3764
F5396.0
aI11432
aF0.4720083974807558
asS'[(14, 3), (3, 2)]'
p3765
(lp3766
F5811.0
aI11187
aF0.5194422097076964
asS'[(2, 2), (7, 2)]'
p3767
(lp3768
F4282.5
aI11196
aF0.382502679528403
asS'[(3, 2), (10, 4)]'
p3769
(lp3770
F4631.5
aI11126
aF0.41627718856731977
asS'[(10, 1), (9, 2)]'
p3771
(lp3772
F6037.5
aI11304
aF0.5341029723991507
asS'[(13, 3), (9, 1)]'
p3773
(lp3774
F6610.0
aI11340
aF0.5828924162257496
asS'[(13, 3), (12, 2)]'
p3775
(lp3776
F6906.0
aI11077
aF0.6234540037916403
asS'[(14, 1), (14, 2)]'
p3777
(lp3778
F9775.0
aI11281
aF0.86650119670242
asS'[(8, 2), (13, 3)]'
p3779
(lp3780
F6305.0
aI11162
aF0.5648629277907186
asS'[(9, 1), (11, 2)]'
p3781
(lp3782
F6236.0
aI11418
aF0.5461551935540375
asS'[(12, 3), (8, 3)]'
p3783
(lp3784
F6434.0
aI11337
aF0.567522272206051
asS'[(6, 1), (13, 1)]'
p3785
(lp3786
F6407.5
aI11327
aF0.5656837644566081
asS'[(11, 4), (14, 3)]'
p3787
(lp3788
F7147.0
aI11266
aF0.634386650097639
asS'[(11, 1), (14, 2)]'
p3789
(lp3790
F7185.5
aI11231
aF0.6397916481168195
asS'[(2, 3), (14, 2)]'
p3791
(lp3792
F5901.0
aI11404
aF0.517450017537706
asS'[(11, 3), (14, 2)]'
p3793
(lp3794
F7062.0
aI11152
aF0.6332496413199427
asS'[(13, 2), (11, 3)]'
p3795
(lp3796
F6913.5
aI11222
aF0.6160666547852433
asS'[(11, 1), (6, 2)]'
p3797
(lp3798
F5559.0
aI11472
aF0.48457112970711297
asS'[(3, 2), (4, 1)]'
p3799
(lp3800
F3804.0
aI11110
aF0.34239423942394237
asS'[(12, 3), (10, 4)]'
p3801
(lp3802
F6378.5
aI11159
aF0.5716013979747289
asS'[(7, 1), (11, 2)]'
p3803
(lp3804
F5796.0
aI11333
aF0.5114268066707844
asS'[(8, 1), (8, 2)]'
p3805
(lp3806
F7874.0
aI11264
aF0.6990411931818182
asS'[(5, 3), (7, 4)]'
p3807
(lp3808
F4681.0
aI11221
aF0.4171642456109081
asS'[(9, 4), (10, 3)]'
p3809
(lp3810
F5898.5
aI11403
aF0.5172761553977023
asS'[(11, 1), (11, 4)]'
p3811
(lp3812
F8722.0
aI11161
aF0.781471194337425
asS'[(12, 4), (10, 2)]'
p3813
(lp3814
F6611.0
aI11419
aF0.5789473684210527
asS'[(6, 2), (12, 3)]'
p3815
(lp3816
F5886.0
aI11456
aF0.5137918994413407
asS'[(4, 4), (4, 1)]'
p3817
(lp3818
F6574.5
aI11329
aF0.5803248300820902
asS'[(13, 3), (7, 3)]'
p3819
(lp3820
F6596.0
aI11360
aF0.5806338028169014
asS'[(9, 1), (5, 1)]'
p3821
(lp3822
F5270.5
aI11383
aF0.4630150224018273
asS'[(2, 2), (14, 2)]'
p3823
(lp3824
F6200.5
aI11393
aF0.5442376898095321
asS'[(8, 2), (13, 1)]'
p3825
(lp3826
F6411.0
aI11375
aF0.5636043956043956
asS'[(9, 3), (8, 4)]'
p3827
(lp3828
F5506.5
aI11237
aF0.49003292693779477
asS'[(2, 1), (14, 2)]'
p3829
(lp3830
F5746.5
aI11103
aF0.5175628208592272
asS'[(2, 1), (6, 2)]'
p3831
(lp3832
F3777.5
aI11179
aF0.3379103676536363
asS'[(12, 1), (7, 4)]'
p3833
(lp3834
F5858.0
aI11197
aF0.5231758506742877
asS'[(8, 1), (2, 1)]'
p3835
(lp3836
F4514.0
aI11399
aF0.3959996490920256
asS'[(8, 1), (4, 2)]'
p3837
(lp3838
F4474.0
aI11192
aF0.39974982130092923
asS'[(9, 4), (9, 1)]'
p3839
(lp3840
F8099.5
aI11118
aF0.7285033279366793
asS'[(5, 1), (4, 1)]'
p3841
(lp3842
F4632.5
aI11256
aF0.41155828002842926
asS'[(8, 3), (6, 4)]'
p3843
(lp3844
F4979.5
aI11229
aF0.44344999554724374
asS'[(5, 3), (10, 2)]'
p3845
(lp3846
F5185.5
aI11523
aF0.45001301744337413
asS'[(9, 3), (9, 4)]'
p3847
(lp3848
F8289.5
aI11430
aF0.7252405949256343
asS'[(8, 2), (7, 3)]'
p3849
(lp3850
F5209.5
aI11241
aF0.46343741659994664
asS'[(14, 4), (13, 4)]'
p3851
(lp3852
F7677.5
aI11272
aF0.68111249112846
asS'[(3, 4), (4, 1)]'
p3853
(lp3854
F3761.5
aI11374
aF0.3307103921223844
asS'[(6, 1), (13, 4)]'
p3855
(lp3856
F6088.0
aI11322
aF0.5377141847730083
asS'[(3, 4), (12, 2)]'
p3857
(lp3858
F5302.0
aI11452
aF0.46297589940621725
asS'[(11, 2), (3, 1)]'
p3859
(lp3860
F5163.0
aI11562
aF0.4465490399584847
asS'[(14, 3), (3, 4)]'
p3861
(lp3862
F5899.5
aI11404
aF0.5173184847421958
asS'[(2, 2), (7, 4)]'
p3863
(lp3864
F4033.0
aI11449
aF0.35225783911258624
asS'[(8, 1), (7, 2)]'
p3865
(lp3866
F5279.5
aI11363
aF0.46462201883305465
asS'[(10, 1), (4, 3)]'
p3867
(lp3868
F4857.5
aI11284
aF0.4304767812832329
asS'[(3, 3), (12, 1)]'
p3869
(lp3870
F5193.5
aI11153
aF0.46565946382139334
asS'[(8, 2), (9, 3)]'
p3871
(lp3872
F5723.5
aI11339
aF0.5047623247199929
asS'[(11, 3), (2, 4)]'
p3873
(lp3874
F4911.0
aI11291
aF0.4349481888229563
asS'[(7, 1), (8, 1)]'
p3875
(lp3876
F5617.5
aI11393
aF0.49306591766874397
asS'[(8, 2), (3, 2)]'
p3877
(lp3878
F4642.5
aI11340
aF0.4093915343915344
asS'[(6, 1), (14, 3)]'
p3879
(lp3880
F6542.0
aI11315
aF0.5781705700397702
asS'[(2, 2), (8, 2)]'
p3881
(lp3882
F4527.0
aI11300
aF0.40061946902654866
asS'[(9, 3), (10, 3)]'
p3883
(lp3884
F6270.5
aI11337
aF0.5531004674958102
asS'[(10, 3), (5, 3)]'
p3885
(lp3886
F5470.0
aI11401
aF0.4797824752214718
asS'[(3, 4), (4, 3)]'
p3887
(lp3888
F3892.0
aI11500
aF0.33843478260869564
asS'[(6, 2), (7, 4)]'
p3889
(lp3890
F5016.5
aI11570
aF0.4335782195332757
asS'[(14, 3), (11, 2)]'
p3891
(lp3892
F7222.5
aI11266
aF0.6410882300727854
asS'[(2, 3), (11, 1)]'
p3893
(lp3894
F4830.5
aI11291
aF0.42781861659728987
asS'[(6, 2), (9, 4)]'
p3895
(lp3896
F5246.0
aI11308
aF0.4639193491333569
asS'[(13, 2), (8, 1)]'
p3897
(lp3898
F6360.0
aI11384
aF0.5586788475052705
asS'[(13, 1), (7, 1)]'
p3899
(lp3900
F6713.0
aI11440
aF0.5868006993006993
asS'[(5, 2), (4, 2)]'
p3901
(lp3902
F4593.5
aI11435
aF0.4017052907739397
asS'[(3, 1), (10, 1)]'
p3903
(lp3904
F5084.0
aI11220
aF0.45311942959001783
asS'[(10, 2), (3, 2)]'
p3905
(lp3906
F5069.5
aI11266
aF0.4499822474702645
asS'[(14, 3), (7, 4)]'
p3907
(lp3908
F6517.0
aI11121
aF0.5860084524772952
asS'[(5, 1), (11, 3)]'
p3909
(lp3910
F5382.5
aI11210
aF0.48015165031222123
asS'[(12, 3), (3, 2)]'
p3911
(lp3912
F5340.0
aI11364
aF0.4699049630411827
asS'[(5, 4), (2, 4)]'
p3913
(lp3914
F4274.5
aI11471
aF0.3726353412954407
asS'[(11, 4), (4, 3)]'
p3915
(lp3916
F5170.0
aI11256
aF0.4593105899076048
asS'[(14, 1), (5, 1)]'
p3917
(lp3918
F6489.5
aI11370
aF0.5707563764291996
asS'[(9, 1), (12, 1)]'
p3919
(lp3920
F6475.0
aI11108
aF0.5829132157003961
asS'[(5, 3), (4, 4)]'
p3921
(lp3922
F4179.5
aI11259
aF0.3712141397992717
asS'[(11, 3), (10, 1)]'
p3923
(lp3924
F6410.5
aI11365
aF0.5640563132424109
asS'[(8, 1), (5, 3)]'
p3925
(lp3926
F4837.5
aI11389
aF0.4247519536394767
asS'[(8, 1), (11, 2)]'
p3927
(lp3928
F5891.0
aI11203
aF0.5258412925109346
asS'[(6, 3), (2, 4)]'
p3929
(lp3930
F3849.5
aI11159
aF0.34496818711354066
asS'[(6, 1), (6, 4)]'
p3931
(lp3932
F7292.0
aI11430
aF0.6379702537182852
asS'[(9, 4), (11, 1)]'
p3933
(lp3934
F6098.0
aI11174
aF0.5457311616252014
asS'[(11, 3), (14, 4)]'
p3935
(lp3936
F7425.0
aI11534
aF0.6437489162476158
asS'[(6, 2), (11, 2)]'
p3937
(lp3938
F5889.5
aI11357
aF0.5185788500484283
asS'[(13, 3), (9, 4)]'
p3939
(lp3940
F6461.5
aI11269
aF0.5733871683379181
asS'[(11, 2), (9, 2)]'
p3941
(lp3942
F6380.0
aI11249
aF0.5671615254689306
asS'[(14, 1), (3, 4)]'
p3943
(lp3944
F6075.5
aI11370
aF0.5343447669305189
asS'[(8, 3), (7, 3)]'
p3945
(lp3946
F5660.5
aI11522
aF0.4912775559798646
asS'[(5, 1), (10, 4)]'
p3947
(lp3948
F5044.5
aI11270
aF0.44760425909494234
asS'[(10, 2), (4, 3)]'
p3949
(lp3950
F4899.5
aI11409
aF0.4294416688579192
asS'[(11, 2), (5, 1)]'
p3951
(lp3952
F5249.0
aI11244
aF0.4668267520455354
asS'[(10, 3), (7, 4)]'
p3953
(lp3954
F5482.0
aI11157
aF0.4913507215201219
asS'[(9, 3), (11, 4)]'
p3955
(lp3956
F6152.5
aI11451
aF0.537289319710069
asS'[(4, 3), (2, 4)]'
p3957
(lp3958
F3575.5
aI11332
aF0.3155224144016943
asS'[(14, 1), (9, 1)]'
p3959
(lp3960
F7071.0
aI11321
aF0.6245914671848777
asS'[(10, 1), (8, 3)]'
p3961
(lp3962
F5728.5
aI11251
aF0.5091547418007288
asS'[(7, 1), (6, 3)]'
p3963
(lp3964
F4956.5
aI11213
aF0.4420315704985285
asS'[(4, 1), (3, 2)]'
p3965
(lp3966
F3859.0
aI11459
aF0.3367658608953661
asS'[(9, 3), (14, 2)]'
p3967
(lp3968
F7073.0
aI11462
aF0.6170825335892515
asS'[(9, 4), (8, 3)]'
p3969
(lp3970
F5538.0
aI11165
aF0.4960143304970891
asS'[(11, 2), (12, 3)]'
p3971
(lp3972
F6758.0
aI11437
aF0.5908892192008394
asS'[(7, 2), (7, 3)]'
p3973
(lp3974
F7543.0
aI11308
aF0.667049876193845
asS'[(12, 4), (2, 2)]'
p3975
(lp3976
F5124.0
aI11339
aF0.4518917012082194
asS'[(3, 4), (11, 2)]'
p3977
(lp3978
F5006.5
aI11395
aF0.4393593681439228
asS'[(2, 3), (8, 2)]'
p3979
(lp3980
F4259.0
aI11408
aF0.3733345021037868
asS'[(12, 1), (11, 2)]'
p3981
(lp3982
F6768.0
aI11405
aF0.593423936869794
asS'[(4, 1), (9, 2)]'
p3983
(lp3984
F4616.5
aI11168
aF0.413368553008596
asS'[(10, 1), (5, 1)]'
p3985
(lp3986
F5357.0
aI11307
aF0.4737773060935703
asS'[(8, 2), (4, 4)]'
p3987
(lp3988
F4560.0
aI11419
aF0.39933444259567386
asS'[(2, 2), (12, 2)]'
p3989
(lp3990
F5594.0
aI11419
aF0.4898852789210964
asS'[(14, 1), (8, 4)]'
p3991
(lp3992
F6873.5
aI11483
aF0.5985805103196029
asS'[(6, 1), (5, 4)]'
p3993
(lp3994
F4670.5
aI11465
aF0.40737025730484083
asS'[(12, 1), (10, 2)]'
p3995
(lp3996
F6543.5
aI11360
aF0.576012323943662
asS'[(10, 1), (12, 2)]'
p3997
(lp3998
F6660.5
aI11348
aF0.5869316179062389
asS'[(12, 2), (3, 1)]'
p3999
(lp4000
F5370.5
aI11335
aF0.47379797088663433
asS'[(4, 2), (9, 1)]'
p4001
(lp4002
F4543.5
aI11183
aF0.4062863274613252
asS'[(13, 2), (9, 3)]'
p4003
(lp4004
F6551.5
aI11259
aF0.5818900435207389
asS'[(3, 1), (8, 2)]'
p4005
(lp4006
F4310.5
aI11439
aF0.37682489728123086
asS'[(7, 2), (14, 2)]'
p4007
(lp4008
F6898.0
aI11351
aF0.6076997621354947
asS'[(11, 3), (11, 1)]'
p4009
(lp4010
F8718.5
aI11263
aF0.77408328154133
asS'[(5, 3), (2, 1)]'
p4011
(lp4012
F3770.0
aI11551
aF0.32637866851354863
asS'[(4, 3), (3, 3)]'
p4013
(lp4014
F4284.5
aI11489
aF0.3729219253198712
asS'[(12, 3), (8, 1)]'
p4015
(lp4016
F6071.0
aI11166
aF0.5437041017374171
asS'[(13, 3), (11, 1)]'
p4017
(lp4018
F6918.5
aI11205
aF0.6174475680499777
asS'[(9, 3), (7, 2)]'
p4019
(lp4020
F5441.0
aI11358
aF0.47904560662088397
asS'[(3, 1), (12, 2)]'
p4021
(lp4022
F5152.5
aI11074
aF0.465279031966769
asS'[(12, 3), (13, 1)]'
p4023
(lp4024
F7170.0
aI11442
aF0.6266386995280545
asS'[(13, 4), (2, 3)]'
p4025
(lp4026
F5595.5
aI11454
aF0.48851929456958265
asS'[(11, 1), (4, 3)]'
p4027
(lp4028
F5159.0
aI11304
aF0.4563871196036801
asS'[(3, 2), (13, 4)]'
p4029
(lp4030
F5601.5
aI11221
aF0.4991979324480884
asS'[(9, 1), (3, 4)]'
p4031
(lp4032
F4465.5
aI11265
aF0.396404793608522
asS'[(13, 2), (10, 1)]'
p4033
(lp4034
F6924.0
aI11377
aF0.6085962907620638
asS'[(2, 2), (11, 2)]'
p4035
(lp4036
F5253.0
aI11236
aF0.46751512993948025
asS'[(13, 4), (5, 1)]'
p4037
(lp4038
F5954.0
aI11334
aF0.525322039880007
asS'[(8, 3), (4, 3)]'
p4039
(lp4040
F4849.5
aI11330
aF0.42802294792586054
asS'[(11, 4), (10, 4)]'
p4041
(lp4042
F6654.0
aI11386
aF0.584401897066573
asS'[(12, 4), (14, 4)]'
p4043
(lp4044
F7381.0
aI11200
aF0.6590178571428571
asS'[(13, 1), (9, 3)]'
p4045
(lp4046
F6679.5
aI11329
aF0.5895930797069467
asS'[(12, 3), (5, 3)]'
p4047
(lp4048
F5901.5
aI11184
aF0.5276734620886981
asS'[(5, 2), (14, 3)]'
p4049
(lp4050
F6211.0
aI11263
aF0.5514516558643345
asS'[(6, 3), (3, 4)]'
p4051
(lp4052
F4112.0
aI11263
aF0.3650892302228536
asS'[(2, 2), (14, 4)]'
p4053
(lp4054
F5909.0
aI11378
aF0.5193355598523466
asS'[(11, 3), (13, 4)]'
p4055
(lp4056
F6984.0
aI11411
aF0.6120410130575761
asS'[(3, 2), (3, 3)]'
p4057
(lp4058
F6271.0
aI11274
aF0.556235586304772
asS'[(4, 4), (4, 3)]'
p4059
(lp4060
F6365.0
aI11230
aF0.5667853962600178
asS'[(8, 1), (14, 4)]'
p4061
(lp4062
F6809.0
aI11274
aF0.6039560049671812
asS'[(5, 4), (11, 3)]'
p4063
(lp4064
F5246.0
aI11170
aF0.4696508504923903
asS'[(11, 1), (7, 3)]'
p4065
(lp4066
F5659.0
aI11195
aF0.5054935238945958
asS'[(14, 3), (9, 1)]'
p4067
(lp4068
F6957.0
aI11440
aF0.6081293706293707
asS'[(5, 1), (6, 2)]'
p4069
(lp4070
F4711.0
aI11375
aF0.41415384615384615
asS'[(13, 3), (11, 3)]'
p4071
(lp4072
F7089.0
aI11208
aF0.6324946466809421
asS'[(14, 3), (14, 4)]'
p4073
(lp4074
F9743.5
aI11269
aF0.8646286272073831
asS'[(10, 2), (14, 1)]'
p4075
(lp4076
F6980.0
aI11196
aF0.623436941764916
asS'[(5, 1), (10, 1)]'
p4077
(lp4078
F5510.0
aI11536
aF0.4776352288488211
asS'[(5, 2), (6, 1)]'
p4079
(lp4080
F4582.0
aI11131
aF0.41164315874584495
asS'[(7, 3), (10, 1)]'
p4081
(lp4082
F5535.0
aI11171
aF0.49547936621609523
asS'[(12, 4), (5, 2)]'
p4083
(lp4084
F5592.5
aI11259
aF0.4967137401190159
asS'[(7, 1), (7, 3)]'
p4085
(lp4086
F7562.0
aI11267
aF0.6711635750421585
asS'[(11, 4), (11, 3)]'
p4087
(lp4088
F8728.0
aI11166
aF0.7816586064839692
asS'[(4, 2), (6, 4)]'
p4089
(lp4090
F4343.5
aI11400
aF0.3810087719298246
asS'[(2, 3), (12, 1)]'
p4091
(lp4092
F5166.5
aI11313
aF0.4566869972597896
asS'[(14, 2), (2, 1)]'
p4093
(lp4094
F5842.5
aI11396
aF0.5126798876798877
asS'[(14, 4), (9, 1)]'
p4095
(lp4096
F6931.0
aI11276
aF0.6146683221000355
asS'[(11, 3), (4, 3)]'
p4097
(lp4098
F5459.5
aI11367
aF0.4802938330254245
asS'[(3, 3), (10, 4)]'
p4099
(lp4100
F4697.0
aI11346
aF0.41397849462365593
asS'[(12, 2), (9, 2)]'
p4101
(lp4102
F6596.0
aI11337
aF0.5818117667813355
asS'[(7, 1), (2, 1)]'
p4103
(lp4104
F4290.0
aI11319
aF0.37900874635568516
asS'[(7, 2), (6, 3)]'
p4105
(lp4106
F4992.0
aI11335
aF0.4404058226731363
asS'[(14, 2), (10, 3)]'
p4107
(lp4108
F7029.5
aI11271
aF0.6236802413273002
asS'[(10, 2), (6, 1)]'
p4109
(lp4110
F5369.0
aI11306
aF0.47488059437466834
asS'[(5, 1), (3, 2)]'
p4111
(lp4112
F3969.5
aI11436
aF0.34710563133962924
asS'[(6, 4), (9, 4)]'
p4113
(lp4114
F5638.5
aI11515
aF0.4896656534954407
asS'[(4, 2), (3, 1)]'
p4115
(lp4116
F3846.0
aI11431
aF0.33645350363047855
asS'[(6, 1), (3, 1)]'
p4117
(lp4118
F4401.5
aI11291
aF0.3898237534319369
asS'[(11, 2), (13, 4)]'
p4119
(lp4120
F6904.0
aI11206
aF0.6160985186507228
asS'[(12, 4), (7, 2)]'
p4121
(lp4122
F5911.0
aI11159
aF0.5297069629895151
asS'[(2, 1), (4, 3)]'
p4123
(lp4124
F3478.0
aI11016
aF0.31572258533042846
asS'[(3, 2), (8, 1)]'
p4125
(lp4126
F4292.0
aI11386
aF0.3769541542244862
asS'[(6, 4), (7, 4)]'
p4127
(lp4128
F5340.5
aI11285
aF0.4732388125830749
asS'[(5, 4), (13, 4)]'
p4129
(lp4130
F6269.0
aI11496
aF0.5453201113430759
asS'[(9, 2), (8, 4)]'
p4131
(lp4132
F5554.5
aI11291
aF0.49194048357098574
asS'[(6, 3), (12, 2)]'
p4133
(lp4134
F5711.0
aI11227
aF0.5086844214839227
asS'[(11, 2), (6, 1)]'
p4135
(lp4136
F5555.0
aI11372
aF0.4884804783679212
asS'[(7, 4), (8, 4)]'
p4137
(lp4138
F5572.5
aI11346
aF0.49114225277630885
asS'[(9, 1), (4, 2)]'
p4139
(lp4140
F4665.0
aI11275
aF0.41374722838137473
asS'[(3, 4), (5, 4)]'
p4141
(lp4142
F4425.0
aI11512
aF0.3843815149409312
asS'[(8, 2), (5, 1)]'
p4143
(lp4144
F4742.5
aI11171
aF0.4245367469340256
asS'[(3, 1), (13, 3)]'
p4145
(lp4146
F5652.0
aI11375
aF0.4968791208791209
asS'[(4, 1), (7, 3)]'
p4147
(lp4148
F4478.0
aI11317
aF0.39568790315454627
asS'[(8, 2), (2, 2)]'
p4149
(lp4150
F4505.5
aI11310
aF0.3983642793987622
asS'[(3, 3), (13, 4)]'
p4151
(lp4152
F5590.5
aI11342
aF0.4929024863339799
asS'[(2, 2), (7, 1)]'
p4153
(lp4154
F3928.0
aI11254
aF0.3490314554824951
asS'[(14, 3), (3, 1)]'
p4155
(lp4156
F5964.0
aI11197
aF0.5326426721443244
asS'[(13, 1), (8, 1)]'
p4157
(lp4158
F6515.0
aI11198
aF0.5818003214859796
asS'[(12, 3), (13, 3)]'
p4159
(lp4160
F7258.5
aI11265
aF0.644340878828229
asS'[(10, 2), (4, 4)]'
p4161
(lp4162
F4931.5
aI11412
aF0.4321328426218016
asS'[(13, 3), (9, 2)]'
p4163
(lp4164
F6580.5
aI11281
aF0.583325946281358
asS'[(11, 3), (9, 4)]'
p4165
(lp4166
F6168.5
aI11324
aF0.5447280113034263
asS'[(4, 1), (13, 3)]'
p4167
(lp4168
F5718.5
aI11328
aF0.5048110875706214
asS'[(14, 2), (8, 2)]'
p4169
(lp4170
F7053.0
aI11480
aF0.6143728222996516
asS'[(2, 1), (13, 4)]'
p4171
(lp4172
F5550.5
aI11292
aF0.4915426850867871
asS'[(2, 1), (9, 4)]'
p4173
(lp4174
F4344.0
aI11140
aF0.38994614003590666
asS'[(11, 3), (2, 3)]'
p4175
(lp4176
F5302.5
aI11315
aF0.46862571807335396
asS'[(14, 2), (4, 1)]'
p4177
(lp4178
F6123.0
aI11500
aF0.5324347826086957
asS'[(3, 3), (9, 4)]'
p4179
(lp4180
F4500.0
aI11320
aF0.39752650176678445
asS'[(12, 3), (8, 4)]'
p4181
(lp4182
F6278.5
aI11407
aF0.5504076444288595
asS'[(4, 1), (8, 2)]'
p4183
(lp4184
F4564.5
aI11348
aF0.40222946774762075
asS'[(10, 2), (11, 1)]'
p4185
(lp4186
F6266.5
aI11332
aF0.5529915284151077
asS'[(13, 2), (11, 4)]'
p4187
(lp4188
F7008.5
aI11387
aF0.6154825678405199
asS'[(11, 3), (10, 4)]'
p4189
(lp4190
F6254.0
aI11253
aF0.555762907669066
asS'[(8, 3), (2, 2)]'
p4191
(lp4192
F4166.0
aI11272
aF0.36958836053938965
asS'[(9, 3), (5, 3)]'
p4193
(lp4194
F5341.0
aI11452
aF0.46638141809290956
asS'[(2, 2), (13, 4)]'
p4195
(lp4196
F5524.0
aI11189
aF0.49369916882652604
asS'[(11, 4), (10, 1)]'
p4197
(lp4198
F6581.5
aI11508
aF0.5719064998262079
asS'[(8, 1), (12, 2)]'
p4199
(lp4200
F6141.0
aI11257
aF0.5455272275028871
asS'[(3, 1), (9, 4)]'
p4201
(lp4202
F4514.0
aI11551
aF0.3907886763050818
asS'[(3, 4), (5, 2)]'
p4203
(lp4204
F4024.0
aI11439
aF0.35177900166098436
asS'[(7, 2), (10, 1)]'
p4205
(lp4206
F5603.0
aI11288
aF0.496367824238129
asS'[(7, 4), (9, 3)]'
p4207
(lp4208
F5567.5
aI11580
aF0.48078583765112265
asS'[(4, 1), (13, 1)]'
p4209
(lp4210
F5995.5
aI11230
aF0.5338824577025824
asS'[(10, 4), (5, 1)]'
p4211
(lp4212
F5032.5
aI11122
aF0.452481568063298
asS'[(7, 2), (10, 4)]'
p4213
(lp4214
F5514.0
aI11194
aF0.4925853135608362
asS'[(7, 3), (13, 3)]'
p4215
(lp4216
F6588.5
aI11419
aF0.5769769682108766
asS'[(5, 2), (5, 3)]'
p4217
(lp4218
F6832.5
aI11401
aF0.5992895360056135
asS'[(8, 3), (12, 3)]'
p4219
(lp4220
F6407.0
aI11271
aF0.5684500044361636
asS'[(6, 2), (5, 2)]'
p4221
(lp4222
F5144.0
aI11412
aF0.45075359270942866
asS'[(10, 4), (3, 4)]'
p4223
(lp4224
F5004.0
aI11331
aF0.4416203335980937
asS'[(5, 1), (4, 2)]'
p4225
(lp4226
F4140.5
aI11077
aF0.37379254310733956
asS'[(2, 1), (9, 1)]'
p4227
(lp4228
F4680.0
aI11264
aF0.41548295454545453
asS'[(10, 1), (4, 4)]'
p4229
(lp4230
F4954.0
aI11308
aF0.4380969225327202
asS'[(2, 2), (8, 4)]'
p4231
(lp4232
F4140.5
aI11287
aF0.3668379551696642
asS'[(8, 3), (6, 3)]'
p4233
(lp4234
F5303.5
aI11213
aF0.47297779363239095
asS'[(9, 2), (5, 1)]'
p4235
(lp4236
F4961.0
aI11452
aF0.4331994411456514
asS'[(7, 4), (11, 3)]'
p4237
(lp4238
F5827.0
aI11506
aF0.5064314270815227
asS'[(4, 3), (4, 2)]'
p4239
(lp4240
F6487.0
aI11217
aF0.5783186235178747
asS'[(7, 2), (11, 2)]'
p4241
(lp4242
F6080.0
aI11223
aF0.5417446315601889
asS'[(7, 4), (12, 2)]'
p4243
(lp4244
F5855.0
aI11239
aF0.5209538215143696
asS'[(7, 1), (12, 3)]'
p4245
(lp4246
F6040.5
aI11524
aF0.524166955918084
asS'[(3, 3), (8, 3)]'
p4247
(lp4248
F4597.0
aI11341
aF0.4053434441407283
asS'[(7, 2), (7, 4)]'
p4249
(lp4250
F7657.5
aI11357
aF0.6742537641982917
asS'[(8, 4), (3, 3)]'
p4251
(lp4252
F4219.5
aI11322
aF0.3726815050344462
asS'[(5, 4), (2, 3)]'
p4253
(lp4254
F3641.0
aI11169
aF0.32599158384815113
asS'[(10, 4), (6, 2)]'
p4255
(lp4256
F5292.0
aI11306
aF0.4680700513001946
asS'[(2, 2), (4, 1)]'
p4257
(lp4258
F3654.0
aI11405
aF0.32038579570363873
asS'[(6, 2), (7, 3)]'
p4259
(lp4260
F4887.5
aI11293
aF0.43279022403258655
asS'[(9, 2), (10, 3)]'
p4261
(lp4262
F5879.0
aI11246
aF0.522763649297528
asS'[(12, 1), (7, 1)]'
p4263
(lp4264
F6281.0
aI11347
aF0.5535383801885961
asS'[(4, 4), (8, 2)]'
p4265
(lp4266
F4506.5
aI11273
aF0.3997604896655726
asS'[(13, 1), (11, 2)]'
p4267
(lp4268
F6979.5
aI11326
aF0.6162369768673848
asS'[(5, 2), (4, 1)]'
p4269
(lp4270
F4214.5
aI11374
aF0.3705380692808159
asS'[(7, 3), (12, 1)]'
p4271
(lp4272
F6019.5
aI11481
aF0.5243010190749935
asS'[(8, 1), (5, 4)]'
p4273
(lp4274
F4748.5
aI11421
aF0.41576919709307414
asS'[(5, 4), (7, 1)]'
p4275
(lp4276
F4666.5
aI11290
aF0.4133303808680248
asS'[(2, 4), (3, 1)]'
p4277
(lp4278
F3488.0
aI11206
aF0.3112618240228449
asS'[(2, 4), (11, 1)]'
p4279
(lp4280
F4873.5
aI11440
aF0.42600524475524476
asS'[(10, 2), (7, 4)]'
p4281
(lp4282
F5617.5
aI11308
aF0.4967721966749204
asS'[(12, 1), (7, 2)]'
p4283
(lp4284
F6051.5
aI11509
aF0.5258058910417934
asS'[(11, 1), (2, 4)]'
p4285
(lp4286
F4933.5
aI11294
aF0.4368248627589871
asS'[(4, 1), (4, 2)]'
p4287
(lp4288
F6519.0
aI11471
aF0.5683026763141836
asS'[(3, 2), (7, 2)]'
p4289
(lp4290
F4464.5
aI11326
aF0.3941815292247925
asS'[(10, 1), (11, 2)]'
p4291
(lp4292
F6331.0
aI11356
aF0.557502641775273
asS'[(11, 2), (9, 4)]'
p4293
(lp4294
F6041.0
aI11253
aF0.5368346218786102
asS'[(13, 1), (7, 3)]'
p4295
(lp4296
F6229.0
aI11258
aF0.55329543435779
asS'[(13, 1), (5, 2)]'
p4297
(lp4298
F5912.0
aI11363
aF0.5202851359676142
asS'[(6, 1), (12, 1)]'
p4299
(lp4300
F5951.5
aI11149
aF0.5338146919006189
asS'[(7, 1), (10, 4)]'
p4301
(lp4302
F5502.5
aI11315
aF0.4863013698630137
asS'[(11, 2), (9, 1)]'
p4303
(lp4304
F6103.5
aI11392
aF0.5357707162921348
asS'[(10, 1), (13, 3)]'
p4305
(lp4306
F6951.0
aI11557
aF0.6014536644457904
asS'[(12, 2), (14, 2)]'
p4307
(lp4308
F7526.0
aI11225
aF0.670467706013363
asS'[(12, 4), (10, 1)]'
p4309
(lp4310
F6685.5
aI11436
aF0.584601259181532
asS'[(4, 4), (12, 4)]'
p4311
(lp4312
F5637.0
aI11215
aF0.5026304057066429
asS'[(14, 4), (14, 1)]'
p4313
(lp4314
F9731.0
aI11295
aF0.8615316511730854
asS'[(13, 2), (12, 4)]'
p4315
(lp4316
F7113.5
aI11377
aF0.6252527028214819
asS'[(10, 4), (9, 2)]'
p4317
(lp4318
F5950.5
aI11304
aF0.5264065817409767
asS'[(14, 4), (11, 1)]'
p4319
(lp4320
F7139.5
aI11343
aF0.6294190249493079
asS'[(4, 3), (2, 3)]'
p4321
(lp4322
F4019.5
aI11336
aF0.3545783345095272
asS'[(6, 4), (10, 1)]'
p4323
(lp4324
F5456.5
aI11409
aF0.4782627750021913
asS'[(5, 4), (14, 2)]'
p4325
(lp4326
F6261.0
aI11271
aF0.5554964067074794
asS'[(9, 3), (13, 1)]'
p4327
(lp4328
F6729.5
aI11372
aF0.5917604642982764
asS'[(10, 4), (4, 3)]'
p4329
(lp4330
F4816.0
aI11349
aF0.4243545686844656
asS'[(8, 4), (9, 2)]'
p4331
(lp4332
F5580.0
aI11350
aF0.49162995594713654
asS'[(14, 4), (8, 1)]'
p4333
(lp4334
F6797.5
aI11269
aF0.603203478569527
asS'[(11, 1), (12, 4)]'
p4335
(lp4336
F6567.0
aI11203
aF0.5861822726055521
asS'[(3, 4), (2, 4)]'
p4337
(lp4338
F3879.0
aI11383
aF0.34077132566107354
asS'[(2, 4), (9, 2)]'
p4339
(lp4340
F4320.5
aI11385
aF0.3794905577514273
asS'[(4, 4), (8, 4)]'
p4341
(lp4342
F4886.5
aI11379
aF0.42943140873538976
asS'[(14, 3), (7, 2)]'
p4343
(lp4344
F6674.5
aI11460
aF0.5824171029668412
asS'[(2, 2), (11, 1)]'
p4345
(lp4346
F4910.0
aI11366
aF0.43199014604962166
asS'[(3, 4), (11, 4)]'
p4347
(lp4348
F5372.0
aI11341
aF0.4736795697028481
asS'[(7, 3), (12, 3)]'
p4349
(lp4350
F6231.0
aI11385
aF0.5472990777338603
asS'[(2, 4), (5, 1)]'
p4351
(lp4352
F3821.0
aI11352
aF0.3365926708949965
asS'[(7, 4), (4, 3)]'
p4353
(lp4354
F4414.5
aI11238
aF0.3928190069407368
asS'[(3, 4), (11, 1)]'
p4355
(lp4356
F5057.0
aI11418
aF0.44289717989139954
asS'[(14, 2), (7, 1)]'
p4357
(lp4358
F6563.0
aI11148
aF0.5887154646573376
asS'[(13, 3), (13, 2)]'
p4359
(lp4360
F9462.5
aI11430
aF0.8278652668416447
asS'[(4, 2), (5, 4)]'
p4361
(lp4362
F4133.0
aI11302
aF0.36568748894001063
asS'[(2, 3), (7, 1)]'
p4363
(lp4364
F3924.0
aI11485
aF0.3416630387461907
asS'[(13, 2), (2, 4)]'
p4365
(lp4366
F5450.5
aI11281
aF0.48315752149632124
asS'[(10, 2), (2, 2)]'
p4367
(lp4368
F4939.5
aI11280
aF0.43789893617021275
asS'[(2, 3), (2, 1)]'
p4369
(lp4370
F5892.0
aI11517
aF0.511591560302162
asS'[(3, 2), (6, 3)]'
p4371
(lp4372
F4114.0
aI11112
aF0.37023038156947446
asS'[(14, 4), (9, 4)]'
p4373
(lp4374
F7122.5
aI11361
aF0.6269254467036353
asS'[(3, 1), (5, 1)]'
p4375
(lp4376
F4353.5
aI11446
aF0.380351214398043
asS'[(14, 3), (12, 2)]'
p4377
(lp4378
F7261.5
aI11188
aF0.6490436181623168
asS'[(12, 2), (13, 4)]'
p4379
(lp4380
F7008.5
aI11227
aF0.6242540304622785
asS'[(2, 4), (10, 1)]'
p4381
(lp4382
F4719.5
aI11447
aF0.4122914300690137
asS'[(4, 4), (12, 2)]'
p4383
(lp4384
F5402.0
aI11395
aF0.4740675734971479
asS'[(11, 3), (6, 1)]'
p4385
(lp4386
F5554.5
aI11359
aF0.48899551016814863
asS'[(4, 4), (10, 4)]'
p4387
(lp4388
F5230.0
aI11371
aF0.4599419576114678
asS'[(2, 4), (9, 1)]'
p4389
(lp4390
F4353.0
aI11351
aF0.38349044137080435
asS'[(10, 4), (9, 3)]'
p4391
(lp4392
F6033.0
aI11286
aF0.5345560871876661
asS'[(9, 2), (13, 3)]'
p4393
(lp4394
F6659.0
aI11404
aF0.5839179235356016
asS'[(3, 2), (13, 3)]'
p4395
(lp4396
F5629.5
aI11345
aF0.49620978404583516
asS'[(12, 3), (8, 2)]'
p4397
(lp4398
F6196.0
aI11384
aF0.5442726633872101
asS'[(12, 1), (13, 3)]'
p4399
(lp4400
F7004.5
aI11366
aF0.6162678162942108
asS'[(11, 4), (10, 3)]'
p4401
(lp4402
F6368.5
aI11327
aF0.5622406639004149
asS'[(4, 1), (11, 4)]'
p4403
(lp4404
F5154.0
aI11325
aF0.4550993377483444
asS'[(13, 4), (10, 3)]'
p4405
(lp4406
F6765.0
aI11309
aF0.5981961269785127
asS'[(12, 2), (10, 1)]'
p4407
(lp4408
F6631.0
aI11316
aF0.5859844468009897
asS'[(3, 2), (3, 4)]'
p4409
(lp4410
F6101.5
aI11325
aF0.5387637969094923
asS'[(14, 2), (11, 3)]'
p4411
(lp4412
F7295.5
aI11437
aF0.6378858092157034
asS'[(2, 4), (12, 4)]'
p4413
(lp4414
F5436.0
aI11145
aF0.4877523553162853
asS'[(3, 3), (10, 1)]'
p4415
(lp4416
F4901.0
aI11474
aF0.4271396200104584
asS'[(9, 3), (12, 1)]'
p4417
(lp4418
F6306.0
aI11299
aF0.5581024869457474
asS'[(12, 3), (13, 4)]'
p4419
(lp4420
F7176.5
aI11498
aF0.6241520264393807
asS'[(11, 3), (5, 3)]'
p4421
(lp4422
F5660.0
aI11319
aF0.5000441735135612
asS'[(6, 1), (11, 3)]'
p4423
(lp4424
F5481.5
aI11263
aF0.48668205629050876
asS'[(14, 1), (5, 4)]'
p4425
(lp4426
F6188.5
aI11139
aF0.5555705179998205
asS'[(14, 4), (11, 4)]'
p4427
(lp4428
F7316.5
aI11173
aF0.6548375548196546
asS'[(9, 1), (14, 2)]'
p4429
(lp4430
F6955.5
aI11294
aF0.6158579776872676
asS'[(13, 1), (13, 2)]'
p4431
(lp4432
F9377.0
aI11256
aF0.8330668088130775
asS'[(12, 3), (6, 3)]'
p4433
(lp4434
F6003.0
aI11054
aF0.5430613352632532
asS'[(8, 1), (10, 4)]'
p4435
(lp4436
F5784.5
aI11349
aF0.509692483919288
asS'[(6, 4), (10, 4)]'
p4437
(lp4438
F5727.5
aI11316
aF0.5061417462000707
asS'[(13, 4), (3, 1)]'
p4439
(lp4440
F5680.5
aI11446
aF0.49628691245850076
asS'[(11, 4), (7, 3)]'
p4441
(lp4442
F5739.5
aI11342
aF0.5060394992064892
asS'[(2, 1), (7, 3)]'
p4443
(lp4444
F3810.5
aI11135
aF0.34220925011225867
asS'[(10, 2), (14, 2)]'
p4445
(lp4446
F7236.0
aI11312
aF0.6396746817538896
asS'[(11, 2), (7, 2)]'
p4447
(lp4448
F6106.0
aI11469
aF0.5323916644868777
asS'[(8, 1), (10, 3)]'
p4449
(lp4450
F5715.0
aI11242
aF0.5083615015121864
asS'[(5, 1), (13, 2)]'
p4451
(lp4452
F5858.5
aI11204
aF0.5228936094252052
asS'[(3, 2), (9, 1)]'
p4453
(lp4454
F4540.5
aI11453
aF0.3964463459355627
asS'[(11, 1), (4, 1)]'
p4455
(lp4456
F5533.5
aI11445
aF0.4834862385321101
asS'[(14, 4), (13, 3)]'
p4457
(lp4458
F7518.5
aI11399
aF0.6595754013509957
asS'[(6, 2), (4, 3)]'
p4459
(lp4460
F4456.5
aI11364
aF0.39215945089757126
asS'[(10, 4), (14, 1)]'
p4461
(lp4462
F6989.5
aI11102
aF0.6295712484237075
asS'[(2, 3), (7, 4)]'
p4463
(lp4464
F3953.5
aI11360
aF0.3480193661971831
asS'[(12, 3), (7, 4)]'
p4465
(lp4466
F5934.0
aI11360
aF0.5223591549295775
asS'[(12, 2), (12, 3)]'
p4467
(lp4468
F9100.0
aI11322
aF0.8037449213919802
asS'[(2, 1), (11, 2)]'
p4469
(lp4470
F4858.0
aI11179
aF0.4345648090169067
asS'[(6, 4), (9, 3)]'
p4471
(lp4472
F5281.5
aI11339
aF0.4657818149748655
asS'[(7, 4), (14, 3)]'
p4473
(lp4474
F6506.5
aI11219
aF0.5799536500579374
asS'[(2, 2), (4, 3)]'
p4475
(lp4476
F3612.0
aI11188
aF0.3228459063282088
asS'[(7, 4), (8, 3)]'
p4477
(lp4478
F5094.0
aI11149
aF0.4569019643017311
asS'[(7, 3), (11, 2)]'
p4479
(lp4480
F5874.0
aI11449
aF0.5130579089876846
asS'[(8, 4), (7, 4)]'
p4481
(lp4482
F5523.5
aI11180
aF0.49405187835420394
asS'[(2, 4), (14, 1)]'
p4483
(lp4484
F5769.0
aI11386
aF0.5066748638679079
asS'[(11, 2), (2, 3)]'
p4485
(lp4486
F4807.0
aI11236
aF0.42782128871484515
asS'[(10, 3), (8, 2)]'
p4487
(lp4488
F5870.0
aI11338
aF0.5177279943552655
asS'[(8, 3), (11, 2)]'
p4489
(lp4490
F5997.0
aI11392
aF0.5264220505617978
asS'[(12, 2), (11, 1)]'
p4491
(lp4492
F6756.5
aI11418
aF0.5917411105272377
asS'[(5, 4), (9, 1)]'
p4493
(lp4494
F4965.5
aI11420
aF0.43480735551663746
asS'[(12, 4), (6, 3)]'
p4495
(lp4496
F5785.5
aI11350
aF0.5097356828193833
asS'[(10, 3), (9, 4)]'
p4497
(lp4498
F5971.5
aI11452
aF0.5214373035277681
asS'[(13, 1), (13, 4)]'
p4499
(lp4500
F9557.5
aI11400
aF0.8383771929824562
asS'[(13, 4), (11, 1)]'
p4501
(lp4502
F6881.0
aI11273
aF0.6103965226647743
asS'[(14, 1), (4, 3)]'
p4503
(lp4504
F6118.0
aI11360
aF0.538556338028169
asS'[(10, 4), (14, 3)]'
p4505
(lp4506
F7129.5
aI11312
aF0.630259900990099
asS'[(14, 4), (5, 2)]'
p4507
(lp4508
F6195.0
aI11226
aF0.5518439337252806
asS'[(11, 4), (9, 2)]'
p4509
(lp4510
F6133.5
aI11268
aF0.5443290734824281
asS'[(5, 1), (5, 4)]'
p4511
(lp4512
F6847.5
aI11373
aF0.6020838828805065
asS'[(7, 2), (5, 2)]'
p4513
(lp4514
F4951.5
aI11345
aF0.43644777434993387
asS'[(10, 3), (10, 1)]'
p4515
(lp4516
F8458.5
aI11274
aF0.7502660989888238
asS'[(2, 4), (6, 1)]'
p4517
(lp4518
F3925.0
aI11499
aF0.341334029046004
asS'[(2, 1), (13, 3)]'
p4519
(lp4520
F5536.5
aI11327
aF0.4887878520349607
asS'[(14, 4), (12, 4)]'
p4521
(lp4522
F7420.5
aI11353
aF0.6536157843741742
asS'[(3, 2), (2, 3)]'
p4523
(lp4524
F3505.0
aI11255
aF0.31141714793425146
asS'[(6, 4), (13, 4)]'
p4525
(lp4526
F6364.5
aI11267
aF0.5648797372858791
asS'[(8, 4), (6, 3)]'
p4527
(lp4528
F4932.0
aI11189
aF0.44079006166770934
asS'[(2, 4), (14, 4)]'
p4529
(lp4530
F6233.5
aI11343
aF0.5495459754914925
asS'[(3, 2), (2, 2)]'
p4531
(lp4532
F3903.5
aI11366
aF0.34343656519443955
asS'[(8, 1), (12, 4)]'
p4533
(lp4534
F6106.5
aI11264
aF0.5421253551136364
asS'[(7, 3), (10, 4)]'
p4535
(lp4536
F5595.0
aI11242
aF0.4976872442625867
asS'[(5, 2), (6, 4)]'
p4537
(lp4538
F4569.0
aI11266
aF0.4055565418072075
asS'[(3, 3), (9, 3)]'
p4539
(lp4540
F4815.0
aI11228
aF0.4288386177413609
asS'[(2, 4), (11, 4)]'
p4541
(lp4542
F5256.5
aI11217
aF0.4686190603548186
asS'[(14, 1), (3, 3)]'
p4543
(lp4544
F5965.0
aI11133
aF0.5357944848648163
asS'[(5, 2), (9, 1)]'
p4545
(lp4546
F4893.5
aI11148
aF0.4389576605669178
asS'[(9, 2), (11, 3)]'
p4547
(lp4548
F6036.5
aI11143
aF0.5417302342277663
asS'[(7, 1), (2, 2)]'
p4549
(lp4550
F3944.5
aI11375
aF0.3467692307692308
asS'[(14, 2), (10, 4)]'
p4551
(lp4552
F7055.0
aI11354
aF0.621366919147437
asS'[(3, 1), (9, 2)]'
p4553
(lp4554
F4433.0
aI11211
aF0.3954152171973954
asS'[(3, 3), (5, 3)]'
p4555
(lp4556
F4372.5
aI11320
aF0.38626325088339225
asS'[(12, 4), (4, 4)]'
p4557
(lp4558
F5767.0
aI11244
aF0.5128957666310922
asS'[(13, 3), (2, 3)]'
p4559
(lp4560
F5843.5
aI11319
aF0.5162558529905469
asS'[(5, 4), (3, 2)]'
p4561
(lp4562
F4088.5
aI11460
aF0.3567626527050611
asS'[(5, 1), (9, 1)]'
p4563
(lp4564
F5312.0
aI11272
aF0.47125621007806956
asS'[(10, 4), (5, 2)]'
p4565
(lp4566
F5136.5
aI11449
aF0.4486418027775352
asS'[(11, 1), (12, 3)]'
p4567
(lp4568
F6579.5
aI11203
aF0.5872980451664732
asS'[(5, 1), (5, 2)]'
p4569
(lp4570
F6877.5
aI11318
aF0.607660364021912
asS'[(5, 2), (5, 4)]'
p4571
(lp4572
F6989.5
aI11378
aF0.6142995253998945
asS'[(7, 3), (13, 4)]'
p4573
(lp4574
F6255.5
aI11236
aF0.5567372730509078
asS'[(2, 3), (13, 2)]'
p4575
(lp4576
F5502.5
aI11235
aF0.48976412995104585
asS'[(14, 4), (7, 4)]'
p4577
(lp4578
F6947.5
aI11339
aF0.6127083517064997
asS'[(6, 3), (4, 4)]'
p4579
(lp4580
F4261.5
aI11055
aF0.38548168249660786
asS'[(6, 4), (11, 4)]'
p4581
(lp4582
F5808.0
aI11406
aF0.5092056812204103
asS'[(12, 1), (6, 2)]'
p4583
(lp4584
F5779.0
aI11214
aF0.5153379703941502
asS'[(14, 4), (12, 2)]'
p4585
(lp4586
F7245.0
aI11269
aF0.6429141893690655
asS'[(6, 3), (13, 3)]'
p4587
(lp4588
F6262.0
aI11356
aF0.5514265586474111
asS'[(5, 2), (10, 1)]'
p4589
(lp4590
F5037.5
aI11325
aF0.4448123620309051
asS'[(11, 1), (14, 4)]'
p4591
(lp4592
F7195.0
aI11243
aF0.6399537489993774
asS'[(5, 2), (12, 3)]'
p4593
(lp4594
F5761.5
aI11411
aF0.5049075453509771
asS'[(9, 2), (10, 4)]'
p4595
(lp4596
F5806.5
aI11136
aF0.521417025862069
asS'[(3, 4), (7, 4)]'
p4597
(lp4598
F4425.0
aI11283
aF0.3921829300717894
asS'[(6, 2), (8, 2)]'
p4599
(lp4600
F5505.0
aI11475
aF0.4797385620915033
asS'[(12, 3), (7, 1)]'
p4601
(lp4602
F5919.0
aI11159
aF0.5304238731069092
asS'[(11, 1), (13, 3)]'
p4603
(lp4604
F6850.5
aI11242
aF0.6093666607365238
asS'[(10, 1), (11, 4)]'
p4605
(lp4606
F6444.0
aI11310
aF0.5697612732095491
asS'[(2, 4), (14, 2)]'
p4607
(lp4608
F5761.5
aI11232
aF0.5129540598290598
asS'[(2, 3), (4, 2)]'
p4609
(lp4610
F3625.5
aI11406
aF0.317859021567596
asS'[(14, 1), (7, 3)]'
p4611
(lp4612
F6519.0
aI11175
aF0.5833557046979866
asS'[(9, 4), (12, 1)]'
p4613
(lp4614
F6224.0
aI11201
aF0.5556646727970717
asS'[(5, 1), (8, 1)]'
p4615
(lp4616
F5112.0
aI11323
aF0.4514704583590921
asS'[(5, 4), (7, 2)]'
p4617
(lp4618
F4600.5
aI11226
aF0.40980758952431856
asS'[(6, 3), (5, 3)]'
p4619
(lp4620
F4970.5
aI11154
aF0.44562488793258026
asS'[(6, 2), (10, 2)]'
p4621
(lp4622
F5696.5
aI11443
aF0.49781525823647643
asS'[(13, 4), (4, 4)]'
p4623
(lp4624
F6107.5
aI11458
aF0.5330336882527492
asS'[(2, 1), (6, 4)]'
p4625
(lp4626
F3871.0
aI11234
aF0.3445789567384725
asS'[(8, 4), (7, 1)]'
p4627
(lp4628
F5149.0
aI11086
aF0.4644596788742558
asS'[(9, 1), (4, 4)]'
p4629
(lp4630
F4586.5
aI11187
aF0.40998480379011354
asS'[(2, 1), (8, 4)]'
p4631
(lp4632
F4198.0
aI11306
aF0.37130727047585355
asS'[(5, 1), (7, 3)]'
p4633
(lp4634
F4753.0
aI11259
aF0.4221511679545253
asS'[(10, 1), (14, 1)]'
p4635
(lp4636
F7312.0
aI11285
aF0.6479397430217102
asS'[(10, 2), (11, 2)]'
p4637
(lp4638
F6428.0
aI11212
aF0.5733143061006065
asS'[(12, 2), (5, 1)]'
p4639
(lp4640
F5671.0
aI11347
aF0.49977967744778357
asS'[(14, 4), (2, 2)]'
p4641
(lp4642
F5837.5
aI11260
aF0.5184280639431617
asS'[(14, 4), (4, 1)]'
p4643
(lp4644
F6025.5
aI11172
aF0.5393394199785178
asS'[(11, 1), (12, 2)]'
p4645
(lp4646
F6649.0
aI11271
aF0.5899210362878183
asS'[(3, 2), (11, 2)]'
p4647
(lp4648
F5378.0
aI11236
aF0.47864008543965825
asS'[(12, 2), (5, 4)]'
p4649
(lp4650
F5763.5
aI11468
aF0.502572375305197
asS'[(10, 1), (9, 4)]'
p4651
(lp4652
F5899.5
aI11305
aF0.5218487394957984
asS'[(3, 2), (7, 1)]'
p4653
(lp4654
F4153.5
aI11256
aF0.36900319829424305
asS'[(7, 3), (2, 4)]'
p4655
(lp4656
F3883.0
aI11298
aF0.3436891485218623
asS'[(14, 4), (13, 1)]'
p4657
(lp4658
F7286.5
aI11210
aF0.65
asS'[(5, 1), (13, 4)]'
p4659
(lp4660
F5926.0
aI11483
aF0.5160672298179918
asS'[(8, 3), (8, 4)]'
p4661
(lp4662
F7837.0
aI11249
aF0.6966841497021957
asS'[(10, 4), (10, 3)]'
p4663
(lp4664
F8528.5
aI11292
aF0.7552692171448814
asS'[(12, 4), (9, 1)]'
p4665
(lp4666
F6487.5
aI11435
aF0.5673371228683866
asS'[(12, 2), (10, 4)]'
p4667
(lp4668
F6609.5
aI11320
aF0.5838780918727915
asS'[(9, 4), (4, 4)]'
p4669
(lp4670
F5032.0
aI11451
aF0.4394376037027334
asS'[(11, 4), (2, 1)]'
p4671
(lp4672
F4794.5
aI11087
aF0.4324434021827365
asS'[(9, 2), (7, 2)]'
p4673
(lp4674
F5641.0
aI11281
aF0.5000443223118518
asS'[(6, 4), (3, 3)]'
p4675
(lp4676
F4096.0
aI11346
aF0.36100828485809977
asS'[(5, 3), (14, 2)]'
p4677
(lp4678
F6296.0
aI11387
aF0.5529112145428998
asS'[(7, 3), (3, 2)]'
p4679
(lp4680
F3985.0
aI11107
aF0.3587827496173584
asS'[(8, 3), (13, 1)]'
p4681
(lp4682
F6415.0
aI11315
aF0.5669465311533363
asS'[(13, 1), (4, 3)]'
p4683
(lp4684
F5661.5
aI11060
aF0.5118896925858951
asS'[(9, 2), (6, 4)]'
p4685
(lp4686
F5202.0
aI11327
aF0.45925664341838085
asS'[(6, 3), (9, 3)]'
p4687
(lp4688
F5452.0
aI11080
aF0.492057761732852
asS'[(10, 2), (13, 4)]'
p4689
(lp4690
F6888.5
aI11385
aF0.6050505050505051
asS'[(9, 2), (3, 1)]'
p4691
(lp4692
F4415.5
aI11102
aF0.3977211313276887
asS'[(10, 3), (3, 4)]'
p4693
(lp4694
F4680.0
aI11314
aF0.4136468092628602
asS'[(2, 3), (10, 4)]'
p4695
(lp4696
F4588.5
aI11377
aF0.40331370308517184
asS'[(9, 2), (3, 4)]'
p4697
(lp4698
F4442.0
aI11306
aF0.3928887316469131
asS'[(4, 2), (5, 3)]'
p4699
(lp4700
F4259.0
aI11268
aF0.37797302094426694
asS'[(8, 1), (8, 4)]'
p4701
(lp4702
F7956.0
aI11382
aF0.6989984185556142
asS'[(3, 4), (14, 4)]'
p4703
(lp4704
F6174.5
aI11230
aF0.5498219056099732
asS'[(7, 2), (13, 4)]'
p4705
(lp4706
F6356.0
aI11403
aF0.5573971761817066
asS'[(10, 4), (11, 3)]'
p4707
(lp4708
F6275.0
aI11254
aF0.5575795272791896
asS'[(2, 3), (2, 4)]'
p4709
(lp4710
F5673.5
aI11146
aF0.5090166876009331
asS'[(7, 2), (8, 3)]'
p4711
(lp4712
F5368.5
aI11479
aF0.46768011150797106
asS'[(14, 4), (3, 3)]'
p4713
(lp4714
F6011.0
aI11335
aF0.5303043670048522
asS'[(5, 1), (2, 2)]'
p4715
(lp4716
F3839.0
aI11332
aF0.33877515001764913
asS'[(6, 4), (12, 1)]'
p4717
(lp4718
F5850.0
aI11158
aF0.5242875067216347
asS'[(13, 2), (5, 4)]'
p4719
(lp4720
F5896.5
aI11352
aF0.5194238900634249
asS'[(7, 3), (14, 1)]'
p4721
(lp4722
F6612.0
aI11321
aF0.5840473456408445
asS'[(14, 1), (3, 2)]'
p4723
(lp4724
F6054.5
aI11450
aF0.5287772925764193
asS'[(8, 3), (12, 1)]'
p4725
(lp4726
F6176.5
aI11284
aF0.5473679546260192
asS'[(14, 2), (3, 3)]'
p4727
(lp4728
F5962.0
aI11385
aF0.523671497584541
asS'[(12, 4), (13, 4)]'
p4729
(lp4730
F7347.5
aI11449
aF0.6417591055987423
asS'[(2, 4), (8, 2)]'
p4731
(lp4732
F4066.0
aI11200
aF0.3630357142857143
asS'[(6, 4), (14, 4)]'
p4733
(lp4734
F6702.0
aI11260
aF0.5952042628774423
asS'[(4, 2), (14, 4)]'
p4735
(lp4736
F6077.5
aI11311
aF0.5373088144284325
asS'[(5, 3), (10, 4)]'
p4737
(lp4738
F5085.5
aI11327
aF0.44897148406462434
asS'[(12, 2), (8, 3)]'
p4739
(lp4740
F6165.5
aI11336
aF0.5438867325335215
asS'[(13, 1), (7, 2)]'
p4741
(lp4742
F6351.0
aI11489
aF0.5527896248585603
asS'[(4, 2), (11, 1)]'
p4743
(lp4744
F5127.5
aI11220
aF0.4569964349376114
asS'[(13, 4), (11, 3)]'
p4745
(lp4746
F6952.5
aI11325
aF0.6139072847682119
asS'[(10, 2), (2, 4)]'
p4747
(lp4748
F4548.0
aI11202
aF0.4059989287627209
asS'[(8, 2), (7, 1)]'
p4749
(lp4750
F5328.5
aI11495
aF0.4635493692909961
asS'[(11, 2), (4, 4)]'
p4751
(lp4752
F5106.5
aI11269
aF0.4531457982074718
asS'[(11, 2), (14, 1)]'
p4753
(lp4754
F7086.0
aI11213
aF0.6319450637652725
asS'[(4, 2), (11, 4)]'
p4755
(lp4756
F5129.5
aI11260
aF0.455550621669627
asS'[(5, 3), (8, 3)]'
p4757
(lp4758
F5094.0
aI11234
aF0.45344489941249777
asS'[(9, 4), (6, 1)]'
p4759
(lp4760
F5060.0
aI11147
aF0.45393379384587784
asS'[(11, 4), (3, 2)]'
p4761
(lp4762
F4957.0
aI11275
aF0.4396452328159645
asS'[(13, 1), (11, 1)]'
p4763
(lp4764
F7158.5
aI11442
aF0.6256336304841811
asS'[(8, 4), (14, 2)]'
p4765
(lp4766
F6772.0
aI11413
aF0.5933584508893367
asS'[(2, 3), (9, 3)]'
p4767
(lp4768
F4782.0
aI11446
aF0.4177878734929233
asS'[(7, 3), (2, 2)]'
p4769
(lp4770
F4017.5
aI11403
aF0.35231956502674733
asS'[(12, 4), (3, 2)]'
p4771
(lp4772
F5224.0
aI11170
aF0.4676812891674127
asS'[(3, 3), (11, 3)]'
p4773
(lp4774
F5284.0
aI11253
aF0.469563671909713
asS'[(9, 1), (7, 4)]'
p4775
(lp4776
F5377.5
aI11337
aF0.4743318338184705
asS'[(6, 1), (13, 3)]'
p4777
(lp4778
F6209.0
aI11452
aF0.5421760391198044
asS'[(8, 1), (9, 3)]'
p4779
(lp4780
F5601.5
aI11378
aF0.4923097205132712
asS'[(4, 4), (14, 4)]'
p4781
(lp4782
F6287.5
aI11266
aF0.5580951535593822
asS'[(11, 3), (6, 2)]'
p4783
(lp4784
F5615.5
aI11487
aF0.4888569687472795
asS'[(13, 2), (7, 1)]'
p4785
(lp4786
F6279.5
aI11405
aF0.5505918456817186
asS'[(4, 1), (5, 4)]'
p4787
(lp4788
F4244.0
aI11311
aF0.375209972593051
asS'[(3, 1), (11, 4)]'
p4789
(lp4790
F4968.5
aI11221
aF0.4427858479636396
asS'[(13, 1), (14, 3)]'
p4791
(lp4792
F7345.0
aI11210
aF0.6552185548617306
asS'[(8, 1), (11, 4)]'
p4793
(lp4794
F5945.5
aI11313
aF0.5255458322284098
asS'[(6, 3), (2, 2)]'
p4795
(lp4796
F3921.5
aI11448
aF0.3425489168413697
asS'[(12, 4), (2, 3)]'
p4797
(lp4798
F5121.0
aI11237
aF0.45572661742457954
asS'[(11, 1), (3, 4)]'
p4799
(lp4800
F4942.5
aI11440
aF0.4320367132867133
asS'[(9, 4), (5, 3)]'
p4801
(lp4802
F4999.5
aI11375
aF0.43951648351648354
asS'[(14, 1), (5, 3)]'
p4803
(lp4804
F6256.0
aI11327
aF0.5523086430652423
asS'[(10, 3), (13, 2)]'
p4805
(lp4806
F6825.5
aI11362
aF0.6007305051927477
asS'[(13, 3), (4, 2)]'
p4807
(lp4808
F5812.5
aI11386
aF0.5104953451607237
asS'[(8, 2), (12, 1)]'
p4809
(lp4810
F6197.5
aI11492
aF0.5392882004872955
asS'[(7, 1), (5, 4)]'
p4811
(lp4812
F4700.5
aI11237
aF0.4183055975794251
asS'[(9, 3), (7, 4)]'
p4813
(lp4814
F5397.0
aI11324
aF0.476598375132462
asS'[(11, 4), (3, 1)]'
p4815
(lp4816
F4968.5
aI11462
aF0.4334758331879253
asS'[(10, 4), (7, 1)]'
p4817
(lp4818
F5511.0
aI11206
aF0.4917901124397644
asS'[(11, 3), (11, 4)]'
p4819
(lp4820
F8634.0
aI11109
aF0.7772076694571969
asS'[(8, 3), (7, 4)]'
p4821
(lp4822
F5286.5
aI11281
aF0.46861980320893537
asS'[(9, 1), (10, 4)]'
p4823
(lp4824
F5911.0
aI11271
aF0.5244432614674829
asS'[(8, 4), (12, 1)]'
p4825
(lp4826
F6162.5
aI11434
aF0.5389627426972188
asS'[(14, 2), (14, 1)]'
p4827
(lp4828
F9745.0
aI11361
aF0.8577590000880204
asS'[(14, 1), (9, 3)]'
p4829
(lp4830
F6945.0
aI11451
aF0.606497249148546
asS'[(14, 2), (12, 2)]'
p4831
(lp4832
F7412.0
aI11179
aF0.6630288934609536
asS'[(6, 1), (12, 4)]'
p4833
(lp4834
F5796.0
aI11309
aF0.5125121584578655
asS'[(4, 1), (11, 1)]'
p4835
(lp4836
F5524.0
aI11410
aF0.484136722173532
asS'[(6, 2), (8, 4)]'
p4837
(lp4838
F4978.0
aI11333
aF0.43924821318274065
asS'[(6, 4), (6, 2)]'
p4839
(lp4840
F7398.5
aI11413
aF0.648251993340927
asS'[(9, 3), (14, 4)]'
p4841
(lp4842
F6912.0
aI11293
aF0.6120605684937572
asS'[(3, 1), (3, 2)]'
p4843
(lp4844
F6012.0
aI11060
aF0.5435804701627487
asS'[(8, 4), (7, 3)]'
p4845
(lp4846
F5260.5
aI11274
aF0.46660457690260776
asS'[(9, 4), (8, 1)]'
p4847
(lp4848
F5617.5
aI11272
aF0.4983587650816182
asS'[(11, 3), (3, 4)]'
p4849
(lp4850
F4893.0
aI11272
aF0.4340844570617459
asS'[(13, 4), (4, 3)]'
p4851
(lp4852
F5683.5
aI11197
aF0.5075913191033312
asS'[(13, 3), (14, 1)]'
p4853
(lp4854
F7448.0
aI11305
aF0.6588235294117647
asS'[(7, 4), (11, 2)]'
p4855
(lp4856
F5758.5
aI11282
aF0.5104148200673639
asS'[(14, 2), (6, 2)]'
p4857
(lp4858
F6619.0
aI11231
aF0.5893509037485531
asS'[(5, 2), (7, 2)]'
p4859
(lp4860
F4980.0
aI11245
aF0.44286349488661625
asS'[(8, 4), (2, 1)]'
p4861
(lp4862
F4169.5
aI11380
aF0.36638840070298767
asS'[(2, 2), (3, 1)]'
p4863
(lp4864
F3537.0
aI11458
aF0.30869261651248037
asS'[(14, 3), (7, 1)]'
p4865
(lp4866
F6567.0
aI11230
aF0.584772929652716
asS'[(10, 3), (5, 1)]'
p4867
(lp4868
F5058.0
aI11494
aF0.44005568122498695
asS'[(11, 3), (12, 1)]'
p4869
(lp4870
F6826.5
aI11417
aF0.5979241482000526
asS'[(6, 2), (9, 2)]'
p4871
(lp4872
F5652.5
aI11507
aF0.4912227339880073
asS'[(7, 1), (6, 4)]'
p4873
(lp4874
F4860.0
aI11227
aF0.4328850093524539
asS'[(12, 1), (5, 2)]'
p4875
(lp4876
F5578.0
aI11277
aF0.4946350979870533
asS'[(14, 2), (12, 1)]'
p4877
(lp4878
F7214.0
aI11130
aF0.648158131176999
asS'[(10, 3), (9, 2)]'
p4879
(lp4880
F6010.0
aI11306
aF0.5315761542543782
asS'[(11, 2), (10, 3)]'
p4881
(lp4882
F6295.0
aI11198
aF0.5621539560635828
asS'[(10, 1), (5, 3)]'
p4883
(lp4884
F5084.5
aI11143
aF0.45629543210984475
asS'[(14, 4), (11, 2)]'
p4885
(lp4886
F7337.5
aI11368
aF0.6454521463757917
asS'[(5, 3), (12, 2)]'
p4887
(lp4888
F5614.5
aI11362
aF0.49414715719063546
asS'[(3, 2), (5, 2)]'
p4889
(lp4890
F4406.0
aI11331
aF0.38884476215691466
asS'[(10, 1), (12, 4)]'
p4891
(lp4892
F6616.0
aI11476
aF0.5765074939003137
asS'[(4, 2), (9, 3)]'
p4893
(lp4894
F4690.0
aI11281
aF0.41574328516975445
asS'[(13, 2), (9, 1)]'
p4895
(lp4896
F6688.5
aI11422
aF0.5855804587637892
asS'[(4, 3), (11, 3)]'
p4897
(lp4898
F5507.0
aI11464
aF0.4803733426378228
asS'[(7, 4), (14, 4)]'
p4899
(lp4900
F6903.5
aI11488
aF0.6009314066852368
asS'[(11, 4), (8, 1)]'
p4901
(lp4902
F5983.0
aI11295
aF0.5297034085878708
asS'[(3, 2), (12, 1)]'
p4903
(lp4904
F5217.0
aI11374
aF0.45867768595041325
asS'[(2, 4), (2, 3)]'
p4905
(lp4906
F5900.0
aI11546
aF0.5109994803395115
asS'[(14, 1), (11, 2)]'
p4907
(lp4908
F7196.0
aI11294
aF0.6371524703382326
asS'[(14, 3), (4, 1)]'
p4909
(lp4910
F6145.0
aI11272
aF0.5451561391057488
asS'[(14, 3), (6, 2)]'
p4911
(lp4912
F6341.0
aI11261
aF0.5630938637776396
asS'[(9, 4), (2, 2)]'
p4913
(lp4914
F4420.0
aI11483
aF0.3849168335800749
asS'[(4, 3), (3, 4)]'
p4915
(lp4916
F3779.5
aI11381
aF0.3320885686670767
asS'[(10, 3), (13, 3)]'
p4917
(lp4918
F7049.5
aI11371
aF0.6199542696332776
asS'[(6, 3), (9, 1)]'
p4919
(lp4920
F5259.0
aI11486
aF0.45786174473271807
asS'[(9, 1), (3, 2)]'
p4921
(lp4922
F4512.0
aI11298
aF0.3993627190653213
asS'[(10, 2), (13, 3)]'
p4923
(lp4924
F6933.0
aI11342
aF0.6112678539940046
asS'[(9, 2), (14, 3)]'
p4925
(lp4926
F6769.5
aI11164
aF0.6063686850591186
asS'[(13, 2), (10, 3)]'
p4927
(lp4928
F6850.0
aI11346
aF0.6037369998237264
asS'[(5, 1), (13, 1)]'
p4929
(lp4930
F6280.5
aI11257
aF0.5579195167451364
asS'[(7, 4), (6, 4)]'
p4931
(lp4932
F5331.0
aI11243
aF0.4741617006137152
asS'[(13, 4), (14, 3)]'
p4933
(lp4934
F7460.0
aI11464
aF0.6507327285415213
asS'[(4, 1), (5, 1)]'
p4935
(lp4936
F4667.0
aI11381
aF0.41006941393550655
asS'[(8, 3), (4, 1)]'
p4937
(lp4938
F4535.5
aI11391
aF0.39816521815468353
asS'[(6, 3), (4, 3)]'
p4939
(lp4940
F4752.5
aI11381
aF0.41758193480362005
asS'[(7, 4), (5, 1)]'
p4941
(lp4942
F4645.5
aI11322
aF0.41030736618971914
asS'[(2, 3), (8, 4)]'
p4943
(lp4944
F4141.5
aI11195
aF0.36994193836534167
asS'[(5, 4), (3, 1)]'
p4945
(lp4946
F4016.0
aI11316
aF0.35489572287027216
asS'[(12, 1), (3, 1)]'
p4947
(lp4948
F5643.5
aI11431
aF0.49370133846557607
asS'[(10, 2), (5, 1)]'
p4949
(lp4950
F5076.5
aI11128
aF0.45619158878504673
asS'[(2, 3), (6, 4)]'
p4951
(lp4952
F3883.0
aI11416
aF0.3401366503153469
asS'[(3, 1), (2, 3)]'
p4953
(lp4954
F3408.5
aI11077
aF0.3077096686828564
asS'[(13, 2), (3, 2)]'
p4955
(lp4956
F5775.5
aI11240
aF0.5138345195729538
asS'[(3, 2), (5, 4)]'
p4957
(lp4958
F3975.0
aI11462
aF0.346798115512127
asS'[(14, 4), (3, 1)]'
p4959
(lp4960
F5959.0
aI11341
aF0.5254386738382859
asS'[(7, 4), (10, 3)]'
p4961
(lp4962
F5506.0
aI11298
aF0.4873428925473535
asS'[(4, 2), (7, 2)]'
p4963
(lp4964
F4820.5
aI11392
aF0.42314782303370785
asS'[(5, 2), (13, 1)]'
p4965
(lp4966
F5841.5
aI11219
aF0.5206792049202246
asS'[(7, 2), (12, 1)]'
p4967
(lp4968
F5897.5
aI11198
aF0.5266565458117521
asS'[(10, 3), (11, 3)]'
p4969
(lp4970
F6502.0
aI11264
aF0.5772372159090909
asS'[(3, 3), (7, 4)]'
p4971
(lp4972
F4073.0
aI11145
aF0.3654553611484971
asS'[(13, 3), (8, 2)]'
p4973
(lp4974
F6399.5
aI11215
aF0.570619705751226
asS'[(8, 2), (4, 2)]'
p4975
(lp4976
F4808.0
aI11272
aF0.42654364797728883
asS'[(14, 4), (12, 1)]'
p4977
(lp4978
F7355.5
aI11340
aF0.6486331569664903
asS'[(12, 1), (6, 1)]'
p4979
(lp4980
F6066.5
aI11426
aF0.530938211097497
asS'[(13, 2), (3, 3)]'
p4981
(lp4982
F5689.0
aI11371
aF0.5003078005452467
asS'[(14, 1), (10, 4)]'
p4983
(lp4984
F7167.5
aI11364
aF0.6307198169658571
asS'[(4, 4), (13, 2)]'
p4985
(lp4986
F5819.5
aI11262
aF0.5167377020067484
asS'[(9, 2), (12, 1)]'
p4987
(lp4988
F6173.5
aI11032
aF0.5595993473531544
asS'[(3, 3), (4, 1)]'
p4989
(lp4990
F3772.0
aI11506
aF0.32782895880410223
asS'[(12, 3), (4, 2)]'
p4991
(lp4992
F5379.5
aI11052
aF0.4867444806369888
asS'[(2, 3), (4, 1)]'
p4993
(lp4994
F3546.0
aI11213
aF0.3162400784803353
asS'[(10, 2), (8, 2)]'
p4995
(lp4996
F6033.5
aI11173
aF0.540007160118142
asS'[(7, 2), (9, 1)]'
p4997
(lp4998
F5320.5
aI11129
aF0.4780752987689819
asS'[(14, 4), (8, 4)]'
p4999
(lp5000
F7110.0
aI11510
aF0.6177237185056472
asS'[(2, 2), (5, 3)]'
p5001
(lp5002
F3775.5
aI11444
aF0.32991087032506117
asS'[(7, 3), (9, 2)]'
p5003
(lp5004
F5457.5
aI11306
aF0.4827082964797453
asS'[(14, 4), (2, 1)]'
p5005
(lp5006
F5812.0
aI11175
aF0.520089485458613
asS'[(12, 1), (10, 3)]'
p5007
(lp5008
F6429.5
aI11130
aF0.5776729559748428
asS'[(13, 2), (4, 3)]'
p5009
(lp5010
F5755.0
aI11236
aF0.5121929512281951
asS'[(2, 2), (7, 3)]'
p5011
(lp5012
F3859.0
aI11297
aF0.34159511374701246
asS'[(14, 3), (3, 3)]'
p5013
(lp5014
F6257.0
aI11368
aF0.5504046446164673
asS'[(10, 1), (9, 3)]'
p5015
(lp5016
F6032.5
aI11358
aF0.5311234372248635
asS'[(3, 2), (6, 1)]'
p5017
(lp5018
F4116.5
aI11239
aF0.3662692410356793
asS'[(9, 3), (6, 3)]'
p5019
(lp5020
F5379.0
aI11225
aF0.47919821826280623
asS'[(10, 4), (8, 4)]'
p5021
(lp5022
F6115.5
aI11347
aF0.5389530272318674
asS'[(3, 2), (10, 1)]'
p5023
(lp5024
F4695.0
aI11112
aF0.4225161987041037
asS'[(14, 1), (14, 3)]'
p5025
(lp5026
F9661.0
aI11296
aF0.8552584985835694
asS'[(5, 4), (11, 1)]'
p5027
(lp5028
F5414.0
aI11371
aF0.47612347199015037
asS'[(8, 2), (11, 1)]'
p5029
(lp5030
F5909.0
aI11332
aF0.5214436992587363
asS'[(8, 2), (13, 2)]'
p5031
(lp5032
F6749.5
aI11431
aF0.5904557781471438
asS'[(3, 2), (5, 1)]'
p5033
(lp5034
F3912.0
aI11217
aF0.34875635196576626
asS'[(9, 1), (2, 1)]'
p5035
(lp5036
F4645.5
aI11104
aF0.4183627521613833
asS'[(12, 1), (5, 1)]'
p5037
(lp5038
F6002.5
aI11433
aF0.5250153065687047
asS'[(5, 4), (10, 2)]'
p5039
(lp5040
F5047.5
aI11350
aF0.4447136563876652
asS'[(9, 2), (6, 2)]'
p5041
(lp5042
F5531.0
aI11392
aF0.48551615168539325
asS'[(7, 2), (9, 3)]'
p5043
(lp5044
F5328.0
aI11360
aF0.46901408450704224
asS'[(12, 3), (14, 1)]'
p5045
(lp5046
F7313.5
aI11237
aF0.6508409717896235
asS'[(3, 2), (14, 3)]'
p5047
(lp5048
F5905.0
aI11363
aF0.5196691014696823
asS'[(6, 3), (9, 4)]'
p5049
(lp5050
F5289.5
aI11517
aF0.4592775896500825
asS'[(11, 1), (6, 3)]'
p5051
(lp5052
F5428.0
aI11247
aF0.48261758691206547
asS'[(14, 4), (5, 4)]'
p5053
(lp5054
F6485.5
aI11274
aF0.5752616640056768
asS'[(14, 4), (3, 4)]'
p5055
(lp5056
F6187.0
aI11320
aF0.5465547703180212
asS'[(13, 3), (8, 4)]'
p5057
(lp5058
F6516.0
aI11347
aF0.574248700096942
asS'[(6, 1), (9, 4)]'
p5059
(lp5060
F5250.5
aI11536
aF0.4551404299583911
asS'[(8, 1), (8, 3)]'
p5061
(lp5062
F7850.5
aI11307
aF0.6943044131953657
asS'[(6, 2), (13, 3)]'
p5063
(lp5064
F6088.5
aI11359
aF0.5360066907298178
asS'[(9, 4), (10, 2)]'
p5065
(lp5066
F6049.5
aI11399
aF0.5307044477585753
asS'[(8, 2), (6, 1)]'
p5067
(lp5068
F5122.5
aI11299
aF0.45335870431011593
asS'[(10, 1), (2, 3)]'
p5069
(lp5070
F4639.5
aI11271
aF0.41163162097418154
asS'[(14, 4), (6, 2)]'
p5071
(lp5072
F6459.0
aI11405
aF0.566330556773345
asS'[(13, 3), (7, 2)]'
p5073
(lp5074
F6301.5
aI11303
aF0.5575068565867469
asS'[(6, 2), (10, 1)]'
p5075
(lp5076
F5311.5
aI11225
aF0.473184855233853
asS'[(7, 4), (9, 4)]'
p5077
(lp5078
F5690.0
aI11347
aF0.5014541288446286
asS'[(4, 2), (14, 2)]'
p5079
(lp5080
F6291.5
aI11172
aF0.5631489437880415
asS'[(12, 1), (2, 3)]'
p5081
(lp5082
F5206.5
aI11332
aF0.45945111189551713
asS'[(2, 1), (6, 3)]'
p5083
(lp5084
F3850.0
aI11395
aF0.3378674857393594
asS'[(8, 1), (4, 3)]'
p5085
(lp5086
F4494.0
aI11369
aF0.3952854252792682
asS'[(13, 3), (5, 3)]'
p5087
(lp5088
F6294.5
aI11283
aF0.5578746787201986
asS'[(2, 2), (9, 2)]'
p5089
(lp5090
F4819.5
aI11299
aF0.42654217187361715
asS'[(5, 3), (9, 1)]'
p5091
(lp5092
F4967.5
aI11474
aF0.43293533205508106
asS'[(11, 3), (7, 3)]'
p5093
(lp5094
F5990.5
aI11308
aF0.5297576936681995
asS'[(5, 4), (5, 3)]'
p5095
(lp5096
F6922.5
aI11363
aF0.6092141159904955
asS'[(5, 3), (10, 3)]'
p5097
(lp5098
F5378.0
aI11278
aF0.47685759886504697
asS'[(8, 2), (2, 1)]'
p5099
(lp5100
F4250.5
aI11408
aF0.37258941093969145
asS'[(14, 2), (8, 1)]'
p5101
(lp5102
F6689.5
aI11195
aF0.5975435462259937
asS'[(9, 1), (7, 2)]'
p5103
(lp5104
F5355.0
aI11248
aF0.4760846372688478
asS'[(12, 1), (2, 1)]'
p5105
(lp5106
F5495.5
aI11297
aF0.48645658139329023
asS'[(12, 1), (9, 3)]'
p5107
(lp5108
F6341.0
aI11291
aF0.5615977327074662
asS'[(5, 1), (14, 1)]'
p5109
(lp5110
F6541.0
aI11284
aF0.5796703296703297
asS'[(7, 3), (5, 1)]'
p5111
(lp5112
F4650.0
aI11266
aF0.4127463163500799
asS'[(10, 3), (4, 1)]'
p5113
(lp5114
F4862.5
aI11347
aF0.4285273640609853
asS'[(5, 2), (3, 3)]'
p5115
(lp5116
F3984.5
aI11406
aF0.3493336840259513
asS'[(9, 4), (6, 2)]'
p5117
(lp5118
F5155.0
aI11252
aF0.45814077497333805
asS'[(11, 4), (12, 4)]'
p5119
(lp5120
F6850.5
aI11201
aF0.6115971788233193
asS'[(14, 1), (11, 4)]'
p5121
(lp5122
F7217.0
aI11402
aF0.6329591299771969
asS'[(8, 2), (3, 3)]'
p5123
(lp5124
F4275.5
aI11375
aF0.3758681318681319
asS'[(6, 1), (14, 2)]'
p5125
(lp5126
F6440.0
aI11240
aF0.5729537366548043
asS'[(8, 4), (2, 2)]'
p5127
(lp5128
F4218.0
aI11439
aF0.36873852609493835
asS'[(5, 3), (13, 3)]'
p5129
(lp5130
F6243.0
aI11324
aF0.5513069586718474
asS'[(11, 4), (4, 2)]'
p5131
(lp5132
F5204.5
aI11324
aF0.45959908159660895
asS'[(12, 2), (11, 4)]'
p5133
(lp5134
F6585.5
aI11191
aF0.5884639442409079
asS'[(3, 3), (8, 4)]'
p5135
(lp5136
F4270.0
aI11362
aF0.37581411723288155
asS'[(11, 3), (12, 2)]'
p5137
(lp5138
F6705.0
aI11313
aF0.5926809864757359
asS'[(2, 4), (4, 4)]'
p5139
(lp5140
F4084.0
aI11319
aF0.36080925876844244
asS'[(3, 3), (4, 3)]'
p5141
(lp5142
F4256.0
aI11184
aF0.3805436337625179
asS'[(6, 1), (11, 2)]'
p5143
(lp5144
F5510.5
aI11383
aF0.48409909514187827
asS'[(8, 1), (11, 3)]'
p5145
(lp5146
F5865.0
aI11300
aF0.5190265486725664
asS'[(5, 2), (4, 3)]'
p5147
(lp5148
F4312.5
aI11448
aF0.3767033542976939
asS'[(2, 2), (3, 2)]'
p5149
(lp5150
F3909.5
aI11316
aF0.3454842700600919
asS'[(12, 2), (6, 4)]'
p5151
(lp5152
F5834.0
aI11391
aF0.5121587217979107
asS'[(10, 3), (3, 2)]'
p5153
(lp5154
F4842.5
aI11384
aF0.42537772312016864
asS'[(5, 1), (11, 2)]'
p5155
(lp5156
F5331.5
aI11298
aF0.4718976810054877
asS'[(7, 1), (5, 2)]'
p5157
(lp5158
F4603.0
aI11296
aF0.40748937677053826
asS'[(8, 2), (3, 1)]'
p5159
(lp5160
F4251.5
aI11277
aF0.3770062960007094
asS'[(11, 1), (2, 2)]'
p5161
(lp5162
F5021.5
aI11439
aF0.43898068012938196
asS'[(4, 1), (4, 4)]'
p5163
(lp5164
F6333.0
aI11080
aF0.5715703971119134
asS'[(12, 1), (4, 3)]'
p5165
(lp5166
F5363.5
aI11184
aF0.47956902718168815
asS'[(2, 1), (5, 1)]'
p5167
(lp5168
F4154.0
aI11380
aF0.36502636203866434
asS'[(3, 1), (12, 3)]'
p5169
(lp5170
F5262.5
aI11283
aF0.4664096428254897
asS'[(13, 3), (3, 1)]'
p5171
(lp5172
F5562.5
aI11152
aF0.49878945480631276
asS'[(9, 3), (7, 3)]'
p5173
(lp5174
F5535.5
aI11149
aF0.4965019284240739
asS'[(13, 2), (7, 2)]'
p5175
(lp5176
F6452.5
aI11113
aF0.5806262935300999
asS'[(12, 2), (12, 1)]'
p5177
(lp5178
F9214.0
aI11417
aF0.8070421301567837
asS'[(5, 3), (10, 1)]'
p5179
(lp5180
F4998.0
aI11149
aF0.44829132657637455
asS'[(5, 2), (14, 4)]'
p5181
(lp5182
F6277.0
aI11320
aF0.5545053003533569
asS'[(2, 4), (10, 4)]'
p5183
(lp5184
F5031.5
aI11296
aF0.44542315864022664
asS'[(11, 2), (9, 3)]'
p5185
(lp5186
F6101.5
aI11298
aF0.540051336519738
asS'[(7, 2), (4, 3)]'
p5187
(lp5188
F4234.0
aI11008
aF0.38462936046511625
asS'[(8, 3), (7, 2)]'
p5189
(lp5190
F5170.0
aI11160
aF0.4632616487455197
asS'[(8, 3), (5, 1)]'
p5191
(lp5192
F4888.5
aI11459
aF0.4266079064490793
asS'[(10, 4), (7, 2)]'
p5193
(lp5194
F5654.5
aI11388
aF0.49653143659992977
asS'[(6, 1), (8, 1)]'
p5195
(lp5196
F5341.5
aI11178
aF0.4778582930756844
asS'[(9, 3), (14, 3)]'
p5197
(lp5198
F7128.5
aI11323
aF0.6295593040713592
asS'[(12, 1), (4, 4)]'
p5199
(lp5200
F5458.0
aI11222
aF0.48636606665478527
asS'[(14, 4), (10, 4)]'
p5201
(lp5202
F7226.5
aI11195
aF0.6455113890129522
asS'[(13, 2), (12, 2)]'
p5203
(lp5204
F7352.0
aI11340
aF0.6483245149911817
asS'[(10, 3), (11, 1)]'
p5205
(lp5206
F6449.5
aI11365
aF0.5674879014518258
asS'[(9, 3), (11, 1)]'
p5207
(lp5208
F6195.5
aI11431
aF0.5419910768961596
asS'[(8, 1), (2, 4)]'
p5209
(lp5210
F4173.5
aI11393
aF0.3663214254366716
asS'[(7, 1), (6, 2)]'
p5211
(lp5212
F5003.0
aI11297
aF0.4428609365318226
asS'[(10, 4), (4, 1)]'
p5213
(lp5214
F5056.5
aI11556
aF0.4375649013499481
asS'[(4, 3), (14, 1)]'
p5215
(lp5216
F5990.5
aI11222
aF0.5338175013366602
asS'[(3, 4), (2, 2)]'
p5217
(lp5218
F3537.5
aI11177
aF0.3164981658763532
asS'[(6, 1), (10, 1)]'
p5219
(lp5220
F5557.0
aI11285
aF0.4924235711120957
asS'[(5, 2), (2, 1)]'
p5221
(lp5222
F3815.5
aI11406
aF0.3345169209188147
asS'[(4, 3), (6, 2)]'
p5223
(lp5224
F4363.0
aI11357
aF0.38416835431892227
asS'[(7, 1), (12, 1)]'
p5225
(lp5226
F6262.5
aI11335
aF0.5524922805469784
asS'[(2, 4), (13, 1)]'
p5227
(lp5228
F5511.0
aI11232
aF0.4906517094017094
asS'[(13, 1), (12, 3)]'
p5229
(lp5230
F7171.0
aI11574
aF0.619578365301538
asS'[(7, 4), (5, 2)]'
p5231
(lp5232
F4636.0
aI11247
aF0.4121988085711745
asS'[(12, 4), (14, 1)]'
p5233
(lp5234
F7319.5
aI11338
aF0.6455724113600282
asS'[(5, 1), (11, 4)]'
p5235
(lp5236
F5407.5
aI11290
aF0.478963684676705
asS'[(3, 4), (11, 3)]'
p5237
(lp5238
F5028.5
aI11402
aF0.4410191194527276
asS'[(10, 2), (5, 2)]'
p5239
(lp5240
F5431.0
aI11235
aF0.48340008900756565
asS'[(2, 3), (8, 3)]'
p5241
(lp5242
F4463.5
aI11161
aF0.39991936206433115
asS'[(4, 3), (10, 3)]'
p5243
(lp5244
F5123.0
aI11146
aF0.45962677193612056
asS'[(6, 3), (3, 2)]'
p5245
(lp5246
F4107.0
aI11381
aF0.3608645988928917
asS'[(10, 1), (12, 3)]'
p5247
(lp5248
F6491.5
aI11215
aF0.5788230049041463
asS'[(3, 4), (8, 2)]'
p5249
(lp5250
F4284.5
aI11475
aF0.3733769063180828
asS'[(2, 3), (3, 4)]'
p5251
(lp5252
F3596.5
aI11381
aF0.31600913803707936
asS'[(4, 2), (12, 4)]'
p5253
(lp5254
F5380.5
aI11222
aF0.47945998930671896
asS'[(2, 2), (12, 3)]'
p5255
(lp5256
F5143.5
aI11349
aF0.45321173671689136
asS'[(5, 3), (4, 3)]'
p5257
(lp5258
F4614.5
aI11476
aF0.4021000348553503
asS'[(10, 2), (10, 3)]'
p5259
(lp5260
F8500.5
aI11227
aF0.7571479469136903
asS'[(4, 1), (9, 4)]'
p5261
(lp5262
F4657.5
aI11357
aF0.41009949810689444
asS'[(14, 1), (8, 1)]'
p5263
(lp5264
F7070.0
aI11441
aF0.6179529761384495
asS'[(6, 4), (12, 4)]'
p5265
(lp5266
F6064.0
aI11339
aF0.534791427815504
asS'[(10, 3), (12, 2)]'
p5267
(lp5268
F6561.5
aI11291
aF0.5811265609777699
asS'[(9, 4), (11, 4)]'
p5269
(lp5270
F6454.5
aI11301
aF0.5711441465357048
asS'[(11, 1), (6, 1)]'
p5271
(lp5272
F5942.0
aI11381
aF0.5220982338986029
asS'[(9, 2), (13, 1)]'
p5273
(lp5274
F6631.5
aI11358
aF0.5838615953512942
asS'[(9, 4), (14, 1)]'
p5275
(lp5276
F6876.5
aI11225
aF0.6126057906458797
asS'[(9, 4), (2, 4)]'
p5277
(lp5278
F4792.0
aI11293
aF0.4243336580182414
asS'[(4, 3), (3, 2)]'
p5279
(lp5280
F3774.0
aI11246
aF0.33558598612840124
asS'[(10, 4), (2, 1)]'
p5281
(lp5282
F4656.0
aI11391
aF0.408743745061891
asS'[(9, 4), (2, 1)]'
p5283
(lp5284
F4266.0
aI11237
aF0.37963869360149505
asS'[(9, 4), (14, 4)]'
p5285
(lp5286
F7274.0
aI11596
aF0.6272852707830286
asS'[(8, 2), (12, 2)]'
p5287
(lp5288
F6572.5
aI11457
aF0.5736667539495505
asS'[(8, 2), (8, 1)]'
p5289
(lp5290
F8076.0
aI11458
aF0.7048350497469017
asS'[(6, 3), (9, 2)]'
p5291
(lp5292
F5170.5
aI11386
aF0.4541103109081328
asS'[(13, 4), (2, 2)]'
p5293
(lp5294
F5591.5
aI11362
aF0.49212286569265973
asS'[(4, 4), (4, 2)]'
p5295
(lp5296
F6506.0
aI11248
aF0.5784139402560455
asS'[(9, 2), (2, 3)]'
p5297
(lp5298
F4502.0
aI11467
aF0.39260486613761225
asS'[(9, 1), (6, 4)]'
p5299
(lp5300
F5246.0
aI11383
aF0.46086268997628044
asS'[(13, 1), (9, 2)]'
p5301
(lp5302
F6718.0
aI11391
aF0.5897638486524449
asS'[(8, 2), (6, 3)]'
p5303
(lp5304
F5191.0
aI11442
aF0.45367942667365846
as.