(dp0
S'[(13, 1), (8, 4)]'
p1
(lp2
F126.75
aI170
aF0.7455882352941177
asS'[(11, 1), (7, 2)]'
p3
(lp4
F118.0
aI153
aF0.7712418300653595
asS'[(13, 2), (3, 4)]'
p5
(lp6
F101.0
aI135
aF0.7481481481481481
asS'[(14, 2), (13, 3)]'
p7
(lp8
F105.0
aI143
aF0.7342657342657343
asS'[(13, 3), (12, 1)]'
p9
(lp10
F121.25
aI155
aF0.782258064516129
asS'[(2, 3), (5, 3)]'
p11
(lp12
F124.25
aI164
aF0.7576219512195121
asS'[(13, 2), (3, 1)]'
p13
(lp14
F121.75
aI160
aF0.7609375
asS'[(13, 3), (12, 4)]'
p15
(lp16
F111.25
aI144
aF0.7725694444444444
asS'[(6, 3), (7, 3)]'
p17
(lp18
F108.75
aI139
aF0.7823741007194245
asS'[(8, 3), (5, 4)]'
p19
(lp20
F103.5
aI136
aF0.7610294117647058
asS'[(11, 4), (11, 2)]'
p21
(lp22
F150.5
aI163
aF0.9233128834355828
asS'[(6, 1), (5, 3)]'
p23
(lp24
F119.25
aI156
aF0.7644230769230769
asS'[(9, 1), (2, 4)]'
p25
(lp26
F117.25
aI154
aF0.7613636363636364
asS'[(7, 2), (12, 2)]'
p27
(lp28
F108.5
aI138
aF0.7862318840579711
asS'[(7, 3), (7, 4)]'
p29
(lp30
F133.5
aI147
aF0.9081632653061225
asS'[(14, 3), (10, 2)]'
p31
(lp32
F116.5
aI154
aF0.7564935064935064
asS'[(7, 1), (4, 4)]'
p33
(lp34
F110.25
aI148
aF0.7449324324324325
asS'[(4, 2), (6, 1)]'
p35
(lp36
F113.25
aI149
aF0.7600671140939598
asS'[(4, 3), (14, 4)]'
p37
(lp38
F127.75
aI171
aF0.7470760233918129
asS'[(5, 1), (3, 3)]'
p39
(lp40
F112.5
aI147
aF0.7653061224489796
asS'[(13, 4), (2, 4)]'
p41
(lp42
F108.25
aI139
aF0.7787769784172662
asS'[(12, 3), (10, 3)]'
p43
(lp44
F93.5
aI128
aF0.73046875
asS'[(6, 3), (6, 4)]'
p45
(lp46
F150.25
aI164
aF0.9161585365853658
asS'[(8, 2), (11, 4)]'
p47
(lp48
F130.0
aI170
aF0.7647058823529411
asS'[(13, 4), (6, 1)]'
p49
(lp50
F117.5
aI160
aF0.734375
asS'[(7, 1), (10, 1)]'
p51
(lp52
F120.75
aI153
aF0.7892156862745098
asS'[(9, 3), (3, 2)]'
p53
(lp54
F118.0
aI155
aF0.7612903225806451
asS'[(4, 1), (7, 2)]'
p55
(lp56
F98.75
aI130
aF0.7596153846153846
asS'[(3, 1), (13, 2)]'
p57
(lp58
F127.75
aI170
aF0.7514705882352941
asS'[(7, 3), (4, 4)]'
p59
(lp60
F119.25
aI153
aF0.7794117647058824
asS'[(11, 4), (7, 1)]'
p61
(lp62
F129.5
aI164
aF0.7896341463414634
asS'[(4, 2), (4, 1)]'
p63
(lp64
F117.25
aI128
aF0.916015625
asS'[(8, 3), (2, 1)]'
p65
(lp66
F118.0
aI162
aF0.7283950617283951
asS'[(3, 4), (12, 4)]'
p67
(lp68
F136.25
aI179
aF0.7611731843575419
asS'[(4, 4), (7, 2)]'
p69
(lp70
F122.75
aI164
aF0.7484756097560976
asS'[(14, 1), (4, 4)]'
p71
(lp72
F96.75
aI136
aF0.7113970588235294
asS'[(3, 1), (6, 4)]'
p73
(lp74
F103.25
aI136
aF0.7591911764705882
asS'[(8, 1), (13, 2)]'
p75
(lp76
F100.25
aI130
aF0.7711538461538462
asS'[(7, 3), (10, 2)]'
p77
(lp78
F102.0
aI134
aF0.7611940298507462
asS'[(5, 2), (6, 2)]'
p79
(lp80
F114.75
aI141
aF0.8138297872340425
asS'[(3, 4), (13, 4)]'
p81
(lp82
F115.25
aI145
aF0.7948275862068965
asS'[(12, 2), (7, 1)]'
p83
(lp84
F114.0
aI151
aF0.7549668874172185
asS'[(9, 1), (11, 4)]'
p85
(lp86
F102.25
aI136
aF0.7518382352941176
asS'[(11, 3), (9, 1)]'
p87
(lp88
F115.25
aI151
aF0.7632450331125827
asS'[(13, 3), (7, 4)]'
p89
(lp90
F110.75
aI145
aF0.7637931034482759
asS'[(11, 3), (4, 4)]'
p91
(lp92
F112.5
aI144
aF0.78125
asS'[(4, 1), (5, 3)]'
p93
(lp94
F115.75
aI147
aF0.7874149659863946
asS'[(9, 1), (8, 3)]'
p95
(lp96
F110.5
aI150
aF0.7366666666666667
asS'[(5, 1), (7, 1)]'
p97
(lp98
F124.75
aI153
aF0.815359477124183
asS'[(10, 2), (11, 4)]'
p99
(lp100
F111.75
aI144
aF0.7760416666666666
asS'[(6, 3), (11, 4)]'
p101
(lp102
F117.0
aI153
aF0.7647058823529411
asS'[(2, 4), (7, 3)]'
p103
(lp104
F114.0
aI155
aF0.7354838709677419
asS'[(11, 1), (8, 2)]'
p105
(lp106
F108.0
aI140
aF0.7714285714285715
asS'[(8, 4), (6, 4)]'
p107
(lp108
F122.25
aI158
aF0.7737341772151899
asS'[(3, 3), (4, 2)]'
p109
(lp110
F110.5
aI146
aF0.7568493150684932
asS'[(9, 3), (3, 4)]'
p111
(lp112
F112.5
aI151
aF0.7450331125827815
asS'[(2, 4), (8, 1)]'
p113
(lp114
F99.25
aI131
aF0.7576335877862596
asS'[(13, 3), (2, 1)]'
p115
(lp116
F95.75
aI131
aF0.7309160305343512
asS'[(7, 4), (9, 2)]'
p117
(lp118
F118.0
aI155
aF0.7612903225806451
asS'[(12, 1), (8, 3)]'
p119
(lp120
F120.25
aI160
aF0.7515625
asS'[(8, 1), (10, 2)]'
p121
(lp122
F124.0
aI165
aF0.7515151515151515
asS'[(12, 3), (4, 1)]'
p123
(lp124
F129.25
aI164
aF0.788109756097561
asS'[(6, 2), (5, 3)]'
p125
(lp126
F126.75
aI168
aF0.7544642857142857
asS'[(8, 3), (12, 2)]'
p127
(lp128
F113.75
aI146
aF0.7791095890410958
asS'[(10, 1), (7, 4)]'
p129
(lp130
F115.0
aI151
aF0.7615894039735099
asS'[(2, 1), (14, 4)]'
p131
(lp132
F124.0
aI166
aF0.7469879518072289
asS'[(11, 4), (12, 2)]'
p133
(lp134
F117.75
aI155
aF0.7596774193548387
asS'[(7, 4), (12, 4)]'
p135
(lp136
F110.25
aI142
aF0.7764084507042254
asS'[(6, 3), (12, 1)]'
p137
(lp138
F123.25
aI159
aF0.7751572327044025
asS'[(11, 3), (7, 4)]'
p139
(lp140
F113.0
aI151
aF0.7483443708609272
asS'[(4, 1), (7, 4)]'
p141
(lp142
F117.25
aI146
aF0.803082191780822
asS'[(3, 1), (13, 4)]'
p143
(lp144
F133.5
aI178
aF0.75
asS'[(7, 1), (3, 4)]'
p145
(lp146
F131.25
aI168
aF0.78125
asS'[(10, 1), (4, 1)]'
p147
(lp148
F102.25
aI136
aF0.7518382352941176
asS'[(2, 2), (8, 1)]'
p149
(lp150
F116.75
aI149
aF0.7835570469798657
asS'[(6, 2), (6, 4)]'
p151
(lp152
F123.5
aI136
aF0.9080882352941176
asS'[(12, 4), (6, 1)]'
p153
(lp154
F105.5
aI138
aF0.7644927536231884
asS'[(4, 3), (8, 4)]'
p155
(lp156
F124.5
aI166
aF0.75
asS'[(2, 1), (5, 4)]'
p157
(lp158
F123.75
aI169
aF0.7322485207100592
asS'[(4, 3), (6, 1)]'
p159
(lp160
F124.25
aI164
aF0.7576219512195121
asS'[(6, 2), (5, 1)]'
p161
(lp162
F120.0
aI150
aF0.8
asS'[(7, 1), (6, 1)]'
p163
(lp164
F120.0
aI150
aF0.8
asS'[(2, 4), (13, 2)]'
p165
(lp166
F98.5
aI136
aF0.7242647058823529
asS'[(3, 3), (8, 2)]'
p167
(lp168
F117.0
aI153
aF0.7647058823529411
asS'[(2, 3), (14, 1)]'
p169
(lp170
F121.75
aI161
aF0.7562111801242236
asS'[(2, 3), (11, 2)]'
p171
(lp172
F107.0
aI143
aF0.7482517482517482
asS'[(10, 1), (10, 2)]'
p173
(lp174
F143.0
aI158
aF0.9050632911392406
asS'[(11, 1), (13, 1)]'
p175
(lp176
F127.25
aI172
aF0.7398255813953488
asS'[(14, 3), (8, 3)]'
p177
(lp178
F114.5
aI143
aF0.8006993006993007
asS'[(4, 1), (2, 4)]'
p179
(lp180
F112.0
aI149
aF0.7516778523489933
asS'[(4, 2), (13, 1)]'
p181
(lp182
F113.0
aI145
aF0.7793103448275862
asS'[(7, 1), (14, 2)]'
p183
(lp184
F127.75
aI173
aF0.7384393063583815
asS'[(8, 1), (6, 4)]'
p185
(lp186
F131.0
aI170
aF0.7705882352941177
asS'[(12, 2), (2, 1)]'
p187
(lp188
F107.0
aI138
aF0.7753623188405797
asS'[(13, 3), (8, 1)]'
p189
(lp190
F120.25
aI158
aF0.7610759493670886
asS'[(10, 2), (12, 3)]'
p191
(lp192
F121.0
aI157
aF0.7707006369426752
asS'[(2, 1), (8, 2)]'
p193
(lp194
F110.5
aI152
aF0.7269736842105263
asS'[(8, 1), (14, 2)]'
p195
(lp196
F111.25
aI144
aF0.7725694444444444
asS'[(8, 1), (5, 1)]'
p197
(lp198
F134.75
aI175
aF0.77
asS'[(6, 4), (8, 4)]'
p199
(lp200
F135.25
aI167
aF0.8098802395209581
asS'[(4, 1), (4, 3)]'
p201
(lp202
F134.0
aI152
aF0.881578947368421
asS'[(3, 1), (10, 3)]'
p203
(lp204
F108.5
aI149
aF0.7281879194630873
asS'[(2, 2), (13, 1)]'
p205
(lp206
F99.0
aI131
aF0.7557251908396947
asS'[(3, 2), (12, 1)]'
p207
(lp208
F151.25
aI190
aF0.7960526315789473
asS'[(8, 3), (8, 2)]'
p209
(lp210
F157.75
aI171
aF0.922514619883041
asS'[(11, 2), (5, 2)]'
p211
(lp212
F109.0
aI149
aF0.7315436241610739
asS'[(10, 4), (3, 1)]'
p213
(lp214
F120.25
aI157
aF0.7659235668789809
asS'[(3, 4), (9, 3)]'
p215
(lp216
F112.5
aI150
aF0.75
asS'[(10, 1), (13, 2)]'
p217
(lp218
F120.25
aI158
aF0.7610759493670886
asS'[(4, 2), (2, 3)]'
p219
(lp220
F111.75
aI149
aF0.75
asS'[(6, 1), (4, 3)]'
p221
(lp222
F135.75
aI176
aF0.7713068181818182
asS'[(7, 4), (11, 1)]'
p223
(lp224
F103.75
aI146
aF0.7106164383561644
asS'[(13, 3), (2, 2)]'
p225
(lp226
F118.5
aI156
aF0.7596153846153846
asS'[(13, 1), (12, 4)]'
p227
(lp228
F103.75
aI140
aF0.7410714285714286
asS'[(9, 3), (11, 2)]'
p229
(lp230
F107.5
aI141
aF0.7624113475177305
asS'[(4, 2), (10, 3)]'
p231
(lp232
F117.75
aI159
aF0.7405660377358491
asS'[(8, 4), (5, 4)]'
p233
(lp234
F131.5
aI169
aF0.7781065088757396
asS'[(6, 3), (13, 1)]'
p235
(lp236
F102.75
aI123
aF0.8353658536585366
asS'[(3, 2), (3, 1)]'
p237
(lp238
F151.75
aI167
aF0.9086826347305389
asS'[(2, 4), (9, 3)]'
p239
(lp240
F123.0
aI159
aF0.7735849056603774
asS'[(2, 2), (13, 3)]'
p241
(lp242
F116.25
aI154
aF0.7548701298701299
asS'[(9, 3), (5, 4)]'
p243
(lp244
F118.75
aI158
aF0.7515822784810127
asS'[(12, 4), (13, 1)]'
p245
(lp246
F105.75
aI147
aF0.7193877551020408
asS'[(4, 3), (13, 2)]'
p247
(lp248
F107.75
aI145
aF0.743103448275862
asS'[(10, 4), (11, 1)]'
p249
(lp250
F124.75
aI163
aF0.7653374233128835
asS'[(4, 4), (8, 1)]'
p251
(lp252
F101.0
aI134
aF0.753731343283582
asS'[(12, 3), (13, 1)]'
p253
(lp254
F119.5
aI155
aF0.7709677419354839
asS'[(9, 1), (10, 1)]'
p255
(lp256
F116.5
aI149
aF0.7818791946308725
asS'[(3, 4), (8, 1)]'
p257
(lp258
F97.0
aI135
aF0.7185185185185186
asS'[(2, 1), (7, 4)]'
p259
(lp260
F96.75
aI131
aF0.7385496183206107
asS'[(6, 4), (14, 2)]'
p261
(lp262
F130.5
aI167
aF0.781437125748503
asS'[(10, 2), (2, 3)]'
p263
(lp264
F109.5
aI143
aF0.7657342657342657
asS'[(11, 4), (14, 4)]'
p265
(lp266
F121.5
aI159
aF0.7641509433962265
asS'[(4, 4), (3, 2)]'
p267
(lp268
F113.75
aI150
aF0.7583333333333333
asS'[(14, 2), (11, 3)]'
p269
(lp270
F115.0
aI150
aF0.7666666666666667
asS'[(12, 1), (2, 4)]'
p271
(lp272
F114.25
aI154
aF0.7418831168831169
asS'[(11, 4), (3, 4)]'
p273
(lp274
F128.75
aI165
aF0.7803030303030303
asS'[(4, 4), (12, 3)]'
p275
(lp276
F115.0
aI149
aF0.7718120805369127
asS'[(10, 1), (8, 4)]'
p277
(lp278
F119.5
aI153
aF0.7810457516339869
asS'[(9, 4), (11, 2)]'
p279
(lp280
F112.25
aI147
aF0.7636054421768708
asS'[(8, 4), (14, 4)]'
p281
(lp282
F109.5
aI139
aF0.7877697841726619
asS'[(5, 4), (4, 4)]'
p283
(lp284
F110.25
aI141
aF0.7819148936170213
asS'[(9, 4), (7, 4)]'
p285
(lp286
F134.25
aI167
aF0.8038922155688623
asS'[(11, 1), (13, 3)]'
p287
(lp288
F117.5
aI159
aF0.7389937106918238
asS'[(11, 3), (9, 3)]'
p289
(lp290
F134.5
aI171
aF0.7865497076023392
asS'[(4, 3), (5, 3)]'
p291
(lp292
F114.0
aI145
aF0.7862068965517242
asS'[(11, 4), (13, 4)]'
p293
(lp294
F106.75
aI134
aF0.7966417910447762
asS'[(13, 1), (4, 1)]'
p295
(lp296
F127.75
aI163
aF0.7837423312883436
asS'[(7, 3), (7, 1)]'
p297
(lp298
F140.75
aI157
aF0.8964968152866242
asS'[(7, 4), (2, 4)]'
p299
(lp300
F117.5
aI149
aF0.7885906040268457
asS'[(8, 3), (9, 1)]'
p301
(lp302
F120.0
aI157
aF0.7643312101910829
asS'[(2, 3), (5, 4)]'
p303
(lp304
F104.75
aI140
aF0.7482142857142857
asS'[(5, 1), (2, 3)]'
p305
(lp306
F119.5
aI156
aF0.7660256410256411
asS'[(8, 1), (9, 4)]'
p307
(lp308
F122.75
aI167
aF0.7350299401197605
asS'[(13, 1), (8, 2)]'
p309
(lp310
F110.5
aI144
aF0.7673611111111112
asS'[(11, 1), (7, 4)]'
p311
(lp312
F125.75
aI160
aF0.7859375
asS'[(12, 4), (11, 1)]'
p313
(lp314
F105.5
aI138
aF0.7644927536231884
asS'[(4, 1), (6, 3)]'
p315
(lp316
F134.25
aI170
aF0.7897058823529411
asS'[(13, 2), (6, 4)]'
p317
(lp318
F105.0
aI141
aF0.7446808510638298
asS'[(13, 3), (4, 4)]'
p319
(lp320
F109.0
aI137
aF0.7956204379562044
asS'[(11, 3), (7, 1)]'
p321
(lp322
F109.0
aI141
aF0.7730496453900709
asS'[(12, 3), (6, 2)]'
p323
(lp324
F120.25
aI161
aF0.7468944099378882
asS'[(5, 4), (2, 2)]'
p325
(lp326
F109.5
aI148
aF0.7398648648648649
asS'[(5, 2), (8, 1)]'
p327
(lp328
F120.0
aI158
aF0.759493670886076
asS'[(2, 1), (7, 2)]'
p329
(lp330
F98.5
aI127
aF0.7755905511811023
asS'[(9, 3), (2, 4)]'
p331
(lp332
F120.75
aI157
aF0.7691082802547771
asS'[(12, 3), (13, 4)]'
p333
(lp334
F113.0
aI154
aF0.7337662337662337
asS'[(10, 2), (6, 2)]'
p335
(lp336
F100.0
aI128
aF0.78125
asS'[(11, 2), (7, 3)]'
p337
(lp338
F114.5
aI153
aF0.7483660130718954
asS'[(8, 3), (14, 1)]'
p339
(lp340
F113.25
aI150
aF0.755
asS'[(11, 2), (12, 4)]'
p341
(lp342
F117.75
aI151
aF0.7798013245033113
asS'[(9, 2), (4, 3)]'
p343
(lp344
F124.0
aI164
aF0.7560975609756098
asS'[(4, 1), (14, 3)]'
p345
(lp346
F119.5
aI160
aF0.746875
asS'[(14, 1), (8, 2)]'
p347
(lp348
F113.0
aI148
aF0.7635135135135135
asS'[(2, 2), (4, 2)]'
p349
(lp350
F144.75
aI187
aF0.7740641711229946
asS'[(6, 2), (4, 2)]'
p351
(lp352
F114.25
aI152
aF0.7516447368421053
asS'[(3, 1), (3, 4)]'
p353
(lp354
F153.0
aI168
aF0.9107142857142857
asS'[(2, 1), (2, 2)]'
p355
(lp356
F135.5
aI148
aF0.9155405405405406
asS'[(9, 3), (4, 3)]'
p357
(lp358
F113.0
aI148
aF0.7635135135135135
asS'[(7, 4), (11, 4)]'
p359
(lp360
F107.75
aI140
aF0.7696428571428572
asS'[(2, 1), (11, 3)]'
p361
(lp362
F109.25
aI139
aF0.7859712230215827
asS'[(9, 2), (4, 1)]'
p363
(lp364
F133.0
aI169
aF0.7869822485207101
asS'[(7, 3), (8, 3)]'
p365
(lp366
F111.25
aI141
aF0.7890070921985816
asS'[(3, 1), (14, 1)]'
p367
(lp368
F107.75
aI137
aF0.7864963503649635
asS'[(9, 3), (3, 1)]'
p369
(lp370
F119.75
aI158
aF0.7579113924050633
asS'[(11, 2), (11, 1)]'
p371
(lp372
F110.75
aI120
aF0.9229166666666667
asS'[(3, 3), (12, 2)]'
p373
(lp374
F108.0
aI141
aF0.7659574468085106
asS'[(8, 4), (8, 3)]'
p375
(lp376
F131.25
aI142
aF0.9242957746478874
asS'[(6, 3), (12, 4)]'
p377
(lp378
F106.75
aI139
aF0.7679856115107914
asS'[(11, 3), (5, 2)]'
p379
(lp380
F118.25
aI156
aF0.7580128205128205
asS'[(6, 2), (11, 3)]'
p381
(lp382
F108.75
aI144
aF0.7552083333333334
asS'[(9, 1), (9, 3)]'
p383
(lp384
F125.25
aI138
aF0.907608695652174
asS'[(2, 1), (12, 4)]'
p385
(lp386
F115.5
aI153
aF0.7549019607843137
asS'[(11, 1), (2, 3)]'
p387
(lp388
F118.0
aI160
aF0.7375
asS'[(11, 2), (2, 2)]'
p389
(lp390
F101.75
aI136
aF0.7481617647058824
asS'[(8, 3), (11, 3)]'
p391
(lp392
F104.5
aI138
aF0.7572463768115942
asS'[(5, 4), (14, 4)]'
p393
(lp394
F105.75
aI134
aF0.789179104477612
asS'[(10, 1), (4, 2)]'
p395
(lp396
F103.75
aI135
aF0.7685185185185185
asS'[(2, 1), (11, 1)]'
p397
(lp398
F109.25
aI148
aF0.7381756756756757
asS'[(12, 3), (6, 4)]'
p399
(lp400
F115.5
aI146
aF0.791095890410959
asS'[(2, 1), (9, 3)]'
p401
(lp402
F120.75
aI157
aF0.7691082802547771
asS'[(4, 4), (7, 4)]'
p403
(lp404
F111.75
aI145
aF0.7706896551724138
asS'[(14, 1), (6, 1)]'
p405
(lp406
F108.0
aI143
aF0.7552447552447552
asS'[(14, 1), (4, 2)]'
p407
(lp408
F118.25
aI164
aF0.7210365853658537
asS'[(14, 2), (4, 2)]'
p409
(lp410
F112.5
aI154
aF0.7305194805194806
asS'[(12, 3), (2, 1)]'
p411
(lp412
F112.0
aI150
aF0.7466666666666667
asS'[(11, 4), (9, 3)]'
p413
(lp414
F96.0
aI125
aF0.768
asS'[(5, 4), (8, 2)]'
p415
(lp416
F120.25
aI162
aF0.7422839506172839
asS'[(8, 4), (14, 1)]'
p417
(lp418
F109.75
aI144
aF0.7621527777777778
asS'[(4, 3), (11, 1)]'
p419
(lp420
F132.5
aI171
aF0.7748538011695907
asS'[(11, 1), (8, 4)]'
p421
(lp422
F114.75
aI149
aF0.7701342281879194
asS'[(8, 3), (11, 1)]'
p423
(lp424
F98.25
aI133
aF0.7387218045112782
asS'[(8, 4), (6, 2)]'
p425
(lp426
F118.25
aI150
aF0.7883333333333333
asS'[(12, 2), (7, 2)]'
p427
(lp428
F113.75
aI142
aF0.801056338028169
asS'[(7, 3), (8, 1)]'
p429
(lp430
F133.25
aI174
aF0.7658045977011494
asS'[(14, 3), (13, 3)]'
p431
(lp432
F114.75
aI151
aF0.7599337748344371
asS'[(8, 1), (12, 1)]'
p433
(lp434
F110.25
aI139
aF0.7931654676258992
asS'[(11, 2), (2, 4)]'
p435
(lp436
F126.5
aI162
aF0.7808641975308642
asS'[(14, 3), (10, 1)]'
p437
(lp438
F118.5
aI170
aF0.6970588235294117
asS'[(11, 4), (11, 1)]'
p439
(lp440
F139.75
aI154
aF0.9074675324675324
asS'[(11, 1), (11, 2)]'
p441
(lp442
F138.25
aI155
aF0.8919354838709678
asS'[(3, 1), (9, 3)]'
p443
(lp444
F113.75
aI147
aF0.7738095238095238
asS'[(7, 4), (6, 2)]'
p445
(lp446
F122.25
aI159
aF0.7688679245283019
asS'[(4, 2), (14, 3)]'
p447
(lp448
F114.5
aI151
aF0.7582781456953642
asS'[(13, 4), (14, 1)]'
p449
(lp450
F103.0
aI142
aF0.7253521126760564
asS'[(8, 4), (13, 1)]'
p451
(lp452
F106.75
aI142
aF0.7517605633802817
asS'[(4, 3), (8, 2)]'
p453
(lp454
F116.0
aI150
aF0.7733333333333333
asS'[(12, 1), (13, 2)]'
p455
(lp456
F88.5
aI116
aF0.7629310344827587
asS'[(11, 1), (14, 4)]'
p457
(lp458
F129.25
aI173
aF0.7471098265895953
asS'[(2, 3), (6, 2)]'
p459
(lp460
F119.25
aI159
aF0.75
asS'[(11, 2), (3, 4)]'
p461
(lp462
F110.25
aI137
aF0.8047445255474452
asS'[(11, 1), (5, 2)]'
p463
(lp464
F118.25
aI155
aF0.7629032258064516
asS'[(2, 3), (13, 3)]'
p465
(lp466
F114.5
aI154
aF0.7435064935064936
asS'[(8, 1), (10, 1)]'
p467
(lp468
F133.0
aI173
aF0.7687861271676301
asS'[(11, 2), (10, 1)]'
p469
(lp470
F130.75
aI167
aF0.7829341317365269
asS'[(13, 2), (11, 2)]'
p471
(lp472
F111.25
aI135
aF0.8240740740740741
asS'[(14, 4), (14, 3)]'
p473
(lp474
F129.25
aI142
aF0.9102112676056338
asS'[(3, 1), (4, 4)]'
p475
(lp476
F97.75
aI137
aF0.7135036496350365
asS'[(4, 2), (12, 3)]'
p477
(lp478
F103.25
aI138
aF0.7481884057971014
asS'[(3, 3), (7, 2)]'
p479
(lp480
F127.75
aI164
aF0.7789634146341463
asS'[(12, 3), (11, 4)]'
p481
(lp482
F99.5
aI131
aF0.7595419847328244
asS'[(3, 3), (13, 3)]'
p483
(lp484
F108.5
aI143
aF0.7587412587412588
asS'[(2, 1), (3, 3)]'
p485
(lp486
F110.75
aI144
aF0.7690972222222222
asS'[(9, 3), (13, 3)]'
p487
(lp488
F115.75
aI150
aF0.7716666666666666
asS'[(12, 4), (12, 1)]'
p489
(lp490
F144.75
aI160
aF0.9046875
asS'[(14, 1), (10, 2)]'
p491
(lp492
F127.0
aI169
aF0.7514792899408284
asS'[(9, 2), (10, 1)]'
p493
(lp494
F132.75
aI171
aF0.7763157894736842
asS'[(3, 4), (7, 1)]'
p495
(lp496
F108.0
aI140
aF0.7714285714285715
asS'[(7, 2), (5, 1)]'
p497
(lp498
F126.0
aI166
aF0.7590361445783133
asS'[(14, 2), (8, 3)]'
p499
(lp500
F132.0
aI171
aF0.7719298245614035
asS'[(10, 2), (8, 4)]'
p501
(lp502
F111.0
aI147
aF0.7551020408163265
asS'[(2, 4), (14, 3)]'
p503
(lp504
F128.25
aI170
aF0.7544117647058823
asS'[(2, 3), (4, 3)]'
p505
(lp506
F134.5
aI172
aF0.7819767441860465
asS'[(11, 1), (10, 3)]'
p507
(lp508
F117.5
aI155
aF0.7580645161290323
asS'[(12, 3), (3, 3)]'
p509
(lp510
F122.0
aI160
aF0.7625
asS'[(4, 1), (11, 4)]'
p511
(lp512
F115.5
aI146
aF0.791095890410959
asS'[(6, 2), (10, 3)]'
p513
(lp514
F108.25
aI145
aF0.746551724137931
asS'[(6, 4), (3, 1)]'
p515
(lp516
F98.25
aI133
aF0.7387218045112782
asS'[(6, 4), (5, 2)]'
p517
(lp518
F110.25
aI144
aF0.765625
asS'[(9, 1), (14, 1)]'
p519
(lp520
F112.25
aI147
aF0.7636054421768708
asS'[(10, 2), (11, 3)]'
p521
(lp522
F103.25
aI134
aF0.7705223880597015
asS'[(10, 4), (13, 2)]'
p523
(lp524
F107.25
aI138
aF0.7771739130434783
asS'[(9, 1), (8, 4)]'
p525
(lp526
F108.5
aI140
aF0.775
asS'[(14, 4), (2, 3)]'
p527
(lp528
F104.75
aI143
aF0.7325174825174825
asS'[(4, 3), (12, 3)]'
p529
(lp530
F123.25
aI156
aF0.7900641025641025
asS'[(3, 2), (11, 3)]'
p531
(lp532
F105.75
aI138
aF0.7663043478260869
asS'[(9, 3), (5, 1)]'
p533
(lp534
F106.75
aI149
aF0.7164429530201343
asS'[(3, 1), (4, 1)]'
p535
(lp536
F126.5
aI158
aF0.8006329113924051
asS'[(3, 2), (9, 2)]'
p537
(lp538
F123.25
aI155
aF0.7951612903225806
asS'[(6, 2), (2, 3)]'
p539
(lp540
F113.75
aI147
aF0.7738095238095238
asS'[(2, 3), (9, 4)]'
p541
(lp542
F99.25
aI135
aF0.7351851851851852
asS'[(10, 4), (10, 2)]'
p543
(lp544
F128.75
aI144
aF0.8940972222222222
asS'[(3, 4), (9, 4)]'
p545
(lp546
F105.75
aI136
aF0.7775735294117647
asS'[(10, 1), (13, 1)]'
p547
(lp548
F140.75
aI183
aF0.7691256830601093
asS'[(8, 3), (14, 3)]'
p549
(lp550
F113.75
aI151
aF0.7533112582781457
asS'[(7, 4), (7, 1)]'
p551
(lp552
F142.0
aI158
aF0.8987341772151899
asS'[(13, 4), (10, 1)]'
p553
(lp554
F99.0
aI135
aF0.7333333333333333
asS'[(2, 4), (5, 2)]'
p555
(lp556
F100.5
aI137
aF0.7335766423357665
asS'[(12, 1), (7, 3)]'
p557
(lp558
F114.0
aI155
aF0.7354838709677419
asS'[(13, 1), (2, 2)]'
p559
(lp560
F98.25
aI143
aF0.6870629370629371
asS'[(4, 3), (13, 1)]'
p561
(lp562
F126.0
aI169
aF0.7455621301775148
asS'[(8, 3), (9, 4)]'
p563
(lp564
F107.75
aI136
aF0.7922794117647058
asS'[(6, 2), (2, 1)]'
p565
(lp566
F102.75
aI130
aF0.7903846153846154
asS'[(14, 4), (6, 4)]'
p567
(lp568
F104.0
aI141
aF0.7375886524822695
asS'[(10, 4), (12, 3)]'
p569
(lp570
F102.5
aI138
aF0.7427536231884058
asS'[(2, 4), (10, 2)]'
p571
(lp572
F105.75
aI136
aF0.7775735294117647
asS'[(4, 1), (8, 3)]'
p573
(lp574
F99.5
aI133
aF0.7481203007518797
asS'[(14, 2), (3, 2)]'
p575
(lp576
F116.0
aI158
aF0.7341772151898734
asS'[(9, 3), (2, 3)]'
p577
(lp578
F109.0
aI144
aF0.7569444444444444
asS'[(7, 2), (4, 1)]'
p579
(lp580
F118.0
aI154
aF0.7662337662337663
asS'[(8, 1), (5, 2)]'
p581
(lp582
F97.25
aI132
aF0.7367424242424242
asS'[(13, 4), (4, 1)]'
p583
(lp584
F116.75
aI161
aF0.7251552795031055
asS'[(8, 4), (14, 3)]'
p585
(lp586
F109.75
aI139
aF0.789568345323741
asS'[(8, 3), (2, 3)]'
p587
(lp588
F105.5
aI145
aF0.7275862068965517
asS'[(12, 2), (2, 2)]'
p589
(lp590
F116.0
aI150
aF0.7733333333333333
asS'[(2, 1), (10, 2)]'
p591
(lp592
F122.25
aI163
aF0.75
asS'[(13, 4), (11, 2)]'
p593
(lp594
F123.0
aI156
aF0.7884615384615384
asS'[(10, 1), (8, 2)]'
p595
(lp596
F113.25
aI140
aF0.8089285714285714
asS'[(5, 3), (8, 2)]'
p597
(lp598
F104.25
aI143
aF0.7290209790209791
asS'[(13, 3), (11, 4)]'
p599
(lp600
F126.75
aI168
aF0.7544642857142857
asS'[(13, 1), (10, 4)]'
p601
(lp602
F128.0
aI168
aF0.7619047619047619
asS'[(12, 1), (9, 1)]'
p603
(lp604
F101.5
aI138
aF0.7355072463768116
asS'[(11, 2), (14, 4)]'
p605
(lp606
F111.25
aI148
aF0.7516891891891891
asS'[(9, 4), (6, 4)]'
p607
(lp608
F121.25
aI152
aF0.7976973684210527
asS'[(2, 3), (9, 2)]'
p609
(lp610
F106.0
aI137
aF0.7737226277372263
asS'[(11, 2), (11, 4)]'
p611
(lp612
F147.0
aI161
aF0.9130434782608695
asS'[(4, 3), (9, 4)]'
p613
(lp614
F121.5
aI156
aF0.7788461538461539
asS'[(7, 2), (6, 4)]'
p615
(lp616
F123.25
aI156
aF0.7900641025641025
asS'[(7, 3), (6, 3)]'
p617
(lp618
F118.25
aI149
aF0.7936241610738255
asS'[(3, 3), (11, 2)]'
p619
(lp620
F105.5
aI141
aF0.74822695035461
asS'[(5, 4), (9, 3)]'
p621
(lp622
F117.0
aI156
aF0.75
asS'[(7, 2), (2, 1)]'
p623
(lp624
F113.0
aI150
aF0.7533333333333333
asS'[(2, 2), (3, 4)]'
p625
(lp626
F123.5
aI163
aF0.7576687116564417
asS'[(9, 2), (4, 2)]'
p627
(lp628
F113.5
aI147
aF0.7721088435374149
asS'[(6, 2), (11, 4)]'
p629
(lp630
F119.0
aI159
aF0.7484276729559748
asS'[(8, 1), (9, 2)]'
p631
(lp632
F110.5
aI141
aF0.7836879432624113
asS'[(9, 3), (9, 1)]'
p633
(lp634
F122.5
aI137
aF0.8941605839416058
asS'[(13, 3), (4, 3)]'
p635
(lp636
F122.25
aI157
aF0.7786624203821656
asS'[(9, 3), (13, 4)]'
p637
(lp638
F109.75
aI148
aF0.7415540540540541
asS'[(14, 1), (12, 2)]'
p639
(lp640
F115.25
aI151
aF0.7632450331125827
asS'[(11, 3), (8, 4)]'
p641
(lp642
F121.0
aI157
aF0.7707006369426752
asS'[(13, 1), (14, 2)]'
p643
(lp644
F129.5
aI170
aF0.7617647058823529
asS'[(3, 3), (3, 2)]'
p645
(lp646
F132.0
aI149
aF0.8859060402684564
asS'[(13, 2), (7, 4)]'
p647
(lp648
F119.0
aI160
aF0.74375
asS'[(9, 4), (5, 2)]'
p649
(lp650
F108.5
aI145
aF0.7482758620689656
asS'[(6, 1), (12, 3)]'
p651
(lp652
F120.5
aI153
aF0.7875816993464052
asS'[(12, 3), (11, 1)]'
p653
(lp654
F121.0
aI153
aF0.7908496732026143
asS'[(14, 2), (2, 4)]'
p655
(lp656
F113.0
aI152
aF0.743421052631579
asS'[(8, 4), (3, 4)]'
p657
(lp658
F110.75
aI149
aF0.7432885906040269
asS'[(12, 4), (10, 3)]'
p659
(lp660
F113.75
aI148
aF0.768581081081081
asS'[(8, 3), (3, 3)]'
p661
(lp662
F110.5
aI142
aF0.778169014084507
asS'[(3, 1), (3, 3)]'
p663
(lp664
F136.25
aI153
aF0.8905228758169934
asS'[(2, 3), (7, 3)]'
p665
(lp666
F106.75
aI142
aF0.7517605633802817
asS'[(6, 3), (3, 3)]'
p667
(lp668
F122.75
aI156
aF0.7868589743589743
asS'[(6, 2), (4, 4)]'
p669
(lp670
F123.5
aI160
aF0.771875
asS'[(3, 4), (4, 4)]'
p671
(lp672
F117.0
aI155
aF0.7548387096774194
asS'[(7, 4), (11, 3)]'
p673
(lp674
F110.75
aI144
aF0.7690972222222222
asS'[(6, 1), (9, 2)]'
p675
(lp676
F112.75
aI155
aF0.7274193548387097
asS'[(14, 1), (6, 4)]'
p677
(lp678
F106.5
aI146
aF0.7294520547945206
asS'[(10, 2), (9, 3)]'
p679
(lp680
F103.75
aI132
aF0.7859848484848485
asS'[(6, 1), (12, 1)]'
p681
(lp682
F103.25
aI133
aF0.7763157894736842
asS'[(8, 1), (13, 1)]'
p683
(lp684
F105.75
aI141
aF0.75
asS'[(8, 4), (10, 2)]'
p685
(lp686
F131.5
aI168
aF0.7827380952380952
asS'[(11, 2), (14, 2)]'
p687
(lp688
F129.0
aI159
aF0.8113207547169812
asS'[(4, 4), (9, 2)]'
p689
(lp690
F97.25
aI133
aF0.731203007518797
asS'[(8, 4), (4, 4)]'
p691
(lp692
F115.0
aI148
aF0.777027027027027
asS'[(14, 2), (6, 3)]'
p693
(lp694
F94.5
aI122
aF0.7745901639344263
asS'[(12, 2), (11, 2)]'
p695
(lp696
F123.25
aI156
aF0.7900641025641025
asS'[(7, 3), (8, 4)]'
p697
(lp698
F111.25
aI137
aF0.8120437956204379
asS'[(11, 3), (8, 2)]'
p699
(lp700
F124.25
aI157
aF0.7914012738853503
asS'[(10, 3), (2, 3)]'
p701
(lp702
F116.0
aI149
aF0.7785234899328859
asS'[(14, 1), (12, 4)]'
p703
(lp704
F121.0
aI158
aF0.7658227848101266
asS'[(5, 2), (11, 1)]'
p705
(lp706
F134.0
aI173
aF0.7745664739884393
asS'[(13, 1), (14, 4)]'
p707
(lp708
F108.75
aI144
aF0.7552083333333334
asS'[(10, 3), (9, 3)]'
p709
(lp710
F118.25
aI151
aF0.7831125827814569
asS'[(13, 1), (10, 1)]'
p711
(lp712
F115.25
aI142
aF0.8116197183098591
asS'[(11, 2), (14, 3)]'
p713
(lp714
F134.25
aI178
aF0.7542134831460674
asS'[(4, 4), (2, 4)]'
p715
(lp716
F115.5
aI152
aF0.7598684210526315
asS'[(5, 3), (12, 3)]'
p717
(lp718
F118.0
aI151
aF0.7814569536423841
asS'[(3, 1), (2, 4)]'
p719
(lp720
F104.0
aI146
aF0.7123287671232876
asS'[(9, 1), (13, 3)]'
p721
(lp722
F108.75
aI146
aF0.7448630136986302
asS'[(9, 4), (13, 1)]'
p723
(lp724
F116.75
aI152
aF0.7680921052631579
asS'[(10, 4), (9, 1)]'
p725
(lp726
F134.25
aI167
aF0.8038922155688623
asS'[(9, 1), (4, 1)]'
p727
(lp728
F107.75
aI136
aF0.7922794117647058
asS'[(9, 4), (5, 4)]'
p729
(lp730
F114.5
aI152
aF0.7532894736842105
asS'[(14, 1), (2, 3)]'
p731
(lp732
F111.5
aI148
aF0.7533783783783784
asS'[(7, 2), (5, 4)]'
p733
(lp734
F131.25
aI165
aF0.7954545454545454
asS'[(7, 4), (4, 4)]'
p735
(lp736
F122.75
aI154
aF0.797077922077922
asS'[(4, 3), (7, 3)]'
p737
(lp738
F128.75
aI164
aF0.7850609756097561
asS'[(5, 3), (11, 4)]'
p739
(lp740
F135.75
aI174
aF0.7801724137931034
asS'[(7, 3), (8, 2)]'
p741
(lp742
F119.0
aI157
aF0.7579617834394905
asS'[(2, 4), (2, 2)]'
p743
(lp744
F133.25
aI152
aF0.8766447368421053
asS'[(14, 2), (11, 4)]'
p745
(lp746
F106.0
aI144
aF0.7361111111111112
asS'[(12, 3), (10, 1)]'
p747
(lp748
F114.0
aI151
aF0.7549668874172185
asS'[(3, 3), (6, 1)]'
p749
(lp750
F108.75
aI148
aF0.7347972972972973
asS'[(8, 2), (12, 4)]'
p751
(lp752
F133.25
aI174
aF0.7658045977011494
asS'[(9, 4), (2, 3)]'
p753
(lp754
F128.5
aI174
aF0.7385057471264368
asS'[(13, 2), (13, 1)]'
p755
(lp756
F129.75
aI145
aF0.8948275862068965
asS'[(13, 2), (13, 4)]'
p757
(lp758
F152.25
aI174
aF0.875
asS'[(9, 2), (14, 2)]'
p759
(lp760
F114.25
aI150
aF0.7616666666666667
asS'[(7, 1), (5, 3)]'
p761
(lp762
F116.0
aI154
aF0.7532467532467533
asS'[(12, 1), (10, 1)]'
p763
(lp764
F132.5
aI170
aF0.7794117647058824
asS'[(4, 4), (10, 2)]'
p765
(lp766
F102.25
aI132
aF0.7746212121212122
asS'[(14, 4), (7, 3)]'
p767
(lp768
F111.25
aI144
aF0.7725694444444444
asS'[(12, 4), (8, 1)]'
p769
(lp770
F114.5
aI152
aF0.7532894736842105
asS'[(14, 2), (12, 1)]'
p771
(lp772
F126.5
aI159
aF0.7955974842767296
asS'[(5, 4), (9, 1)]'
p773
(lp774
F141.75
aI183
aF0.7745901639344263
asS'[(7, 4), (3, 4)]'
p775
(lp776
F115.0
aI149
aF0.7718120805369127
asS'[(14, 2), (3, 4)]'
p777
(lp778
F121.0
aI157
aF0.7707006369426752
asS'[(10, 1), (3, 4)]'
p779
(lp780
F114.75
aI147
aF0.7806122448979592
asS'[(12, 3), (12, 4)]'
p781
(lp782
F133.0
aI146
aF0.910958904109589
asS'[(10, 2), (8, 1)]'
p783
(lp784
F114.5
aI147
aF0.7789115646258503
asS'[(3, 1), (2, 2)]'
p785
(lp786
F103.0
aI134
aF0.7686567164179104
asS'[(6, 3), (13, 4)]'
p787
(lp788
F132.5
aI174
aF0.7614942528735632
asS'[(3, 3), (14, 1)]'
p789
(lp790
F134.25
aI181
aF0.7417127071823204
asS'[(8, 1), (14, 1)]'
p791
(lp792
F110.25
aI142
aF0.7764084507042254
asS'[(7, 1), (8, 2)]'
p793
(lp794
F120.25
aI153
aF0.7859477124183006
asS'[(4, 2), (7, 3)]'
p795
(lp796
F121.5
aI159
aF0.7641509433962265
asS'[(3, 2), (5, 1)]'
p797
(lp798
F95.75
aI127
aF0.7539370078740157
asS'[(10, 3), (11, 2)]'
p799
(lp800
F125.25
aI167
aF0.75
asS'[(7, 4), (3, 1)]'
p801
(lp802
F106.75
aI143
aF0.7465034965034965
asS'[(11, 1), (10, 4)]'
p803
(lp804
F119.25
aI154
aF0.7743506493506493
asS'[(6, 4), (5, 4)]'
p805
(lp806
F117.25
aI154
aF0.7613636363636364
asS'[(5, 2), (13, 4)]'
p807
(lp808
F111.25
aI141
aF0.7890070921985816
asS'[(10, 2), (8, 3)]'
p809
(lp810
F115.5
aI152
aF0.7598684210526315
asS'[(4, 3), (11, 4)]'
p811
(lp812
F97.25
aI134
aF0.7257462686567164
asS'[(5, 1), (14, 1)]'
p813
(lp814
F104.25
aI141
aF0.7393617021276596
asS'[(2, 1), (3, 4)]'
p815
(lp816
F119.75
aI160
aF0.7484375
asS'[(2, 4), (3, 4)]'
p817
(lp818
F112.75
aI146
aF0.7722602739726028
asS'[(14, 1), (4, 3)]'
p819
(lp820
F126.5
aI167
aF0.7574850299401198
asS'[(13, 1), (11, 3)]'
p821
(lp822
F112.75
aI157
aF0.7181528662420382
asS'[(3, 3), (2, 4)]'
p823
(lp824
F111.25
aI152
aF0.7319078947368421
asS'[(11, 4), (5, 4)]'
p825
(lp826
F120.0
aI156
aF0.7692307692307693
asS'[(6, 3), (10, 1)]'
p827
(lp828
F109.75
aI148
aF0.7415540540540541
asS'[(6, 4), (2, 3)]'
p829
(lp830
F126.0
aI165
aF0.7636363636363637
asS'[(4, 4), (10, 4)]'
p831
(lp832
F112.5
aI152
aF0.7401315789473685
asS'[(12, 1), (14, 2)]'
p833
(lp834
F118.25
aI162
aF0.7299382716049383
asS'[(8, 4), (12, 4)]'
p835
(lp836
F114.25
aI149
aF0.7667785234899329
asS'[(13, 1), (3, 3)]'
p837
(lp838
F107.5
aI140
aF0.7678571428571429
asS'[(8, 4), (6, 1)]'
p839
(lp840
F99.5
aI134
aF0.7425373134328358
asS'[(5, 4), (12, 3)]'
p841
(lp842
F120.5
aI156
aF0.7724358974358975
asS'[(13, 4), (9, 1)]'
p843
(lp844
F124.25
aI165
aF0.753030303030303
asS'[(13, 3), (10, 1)]'
p845
(lp846
F105.0
aI142
aF0.7394366197183099
asS'[(10, 4), (13, 1)]'
p847
(lp848
F119.75
aI158
aF0.7579113924050633
asS'[(14, 4), (5, 2)]'
p849
(lp850
F101.25
aI137
aF0.7390510948905109
asS'[(6, 1), (14, 4)]'
p851
(lp852
F114.75
aI150
aF0.765
asS'[(13, 2), (4, 2)]'
p853
(lp854
F122.5
aI152
aF0.805921052631579
asS'[(4, 3), (12, 4)]'
p855
(lp856
F99.25
aI132
aF0.7518939393939394
asS'[(9, 3), (6, 2)]'
p857
(lp858
F107.5
aI142
aF0.7570422535211268
asS'[(6, 2), (2, 4)]'
p859
(lp860
F130.0
aI164
aF0.7926829268292683
asS'[(14, 2), (13, 1)]'
p861
(lp862
F108.5
aI145
aF0.7482758620689656
asS'[(14, 4), (6, 1)]'
p863
(lp864
F121.5
aI161
aF0.7546583850931677
asS'[(10, 2), (12, 4)]'
p865
(lp866
F116.5
aI156
aF0.7467948717948718
asS'[(3, 2), (12, 2)]'
p867
(lp868
F125.0
aI162
aF0.7716049382716049
asS'[(4, 4), (11, 3)]'
p869
(lp870
F117.25
aI146
aF0.803082191780822
asS'[(3, 4), (13, 2)]'
p871
(lp872
F119.0
aI161
aF0.7391304347826086
asS'[(9, 2), (6, 3)]'
p873
(lp874
F115.75
aI146
aF0.7928082191780822
asS'[(5, 1), (12, 1)]'
p875
(lp876
F116.0
aI147
aF0.7891156462585034
asS'[(7, 2), (9, 2)]'
p877
(lp878
F114.25
aI143
aF0.798951048951049
asS'[(13, 3), (6, 2)]'
p879
(lp880
F117.5
aI156
aF0.7532051282051282
asS'[(6, 2), (13, 2)]'
p881
(lp882
F95.25
aI127
aF0.75
asS'[(11, 3), (4, 2)]'
p883
(lp884
F104.5
aI141
aF0.7411347517730497
asS'[(8, 2), (10, 2)]'
p885
(lp886
F111.0
aI142
aF0.7816901408450704
asS'[(3, 2), (14, 2)]'
p887
(lp888
F118.75
aI155
aF0.7661290322580645
asS'[(10, 4), (12, 4)]'
p889
(lp890
F125.5
aI163
aF0.7699386503067485
asS'[(12, 3), (14, 4)]'
p891
(lp892
F111.5
aI145
aF0.7689655172413793
asS'[(14, 4), (6, 3)]'
p893
(lp894
F120.0
aI161
aF0.7453416149068323
asS'[(13, 4), (7, 3)]'
p895
(lp896
F117.25
aI154
aF0.7613636363636364
asS'[(5, 2), (13, 2)]'
p897
(lp898
F122.75
aI157
aF0.7818471337579618
asS'[(12, 4), (12, 2)]'
p899
(lp900
F140.0
aI151
aF0.9271523178807947
asS'[(14, 4), (3, 1)]'
p901
(lp902
F113.25
aI150
aF0.755
asS'[(6, 2), (2, 2)]'
p903
(lp904
F105.75
aI137
aF0.7718978102189781
asS'[(12, 1), (6, 4)]'
p905
(lp906
F126.0
aI164
aF0.7682926829268293
asS'[(11, 2), (5, 4)]'
p907
(lp908
F120.25
aI154
aF0.7808441558441559
asS'[(3, 1), (5, 4)]'
p909
(lp910
F103.75
aI125
aF0.83
asS'[(5, 3), (12, 1)]'
p911
(lp912
F122.5
aI161
aF0.7608695652173914
asS'[(6, 4), (5, 1)]'
p913
(lp914
F141.5
aI182
aF0.7774725274725275
asS'[(10, 3), (4, 4)]'
p915
(lp916
F102.25
aI136
aF0.7518382352941176
asS'[(9, 4), (9, 3)]'
p917
(lp918
F131.25
aI142
aF0.9242957746478874
asS'[(10, 1), (7, 2)]'
p919
(lp920
F119.5
aI150
aF0.7966666666666666
asS'[(2, 1), (10, 4)]'
p921
(lp922
F110.0
aI151
aF0.7284768211920529
asS'[(7, 4), (13, 2)]'
p923
(lp924
F103.75
aI137
aF0.7572992700729927
asS'[(13, 4), (4, 2)]'
p925
(lp926
F135.25
aI174
aF0.7772988505747126
asS'[(2, 2), (9, 3)]'
p927
(lp928
F99.0
aI134
aF0.7388059701492538
asS'[(13, 3), (5, 2)]'
p929
(lp930
F130.25
aI171
aF0.7616959064327485
asS'[(5, 3), (5, 1)]'
p931
(lp932
F139.75
aI158
aF0.884493670886076
asS'[(6, 3), (5, 1)]'
p933
(lp934
F111.5
aI144
aF0.7743055555555556
asS'[(14, 3), (5, 2)]'
p935
(lp936
F113.25
aI154
aF0.7353896103896104
asS'[(5, 4), (5, 2)]'
p937
(lp938
F148.5
aI165
aF0.9
asS'[(10, 3), (3, 1)]'
p939
(lp940
F121.25
aI164
aF0.739329268292683
asS'[(5, 3), (9, 4)]'
p941
(lp942
F103.75
aI133
aF0.7800751879699248
asS'[(9, 1), (7, 3)]'
p943
(lp944
F103.75
aI137
aF0.7572992700729927
asS'[(3, 3), (11, 4)]'
p945
(lp946
F106.25
aI143
aF0.743006993006993
asS'[(13, 4), (7, 1)]'
p947
(lp948
F120.0
aI159
aF0.7547169811320755
asS'[(9, 1), (13, 1)]'
p949
(lp950
F96.5
aI130
aF0.7423076923076923
asS'[(12, 2), (8, 1)]'
p951
(lp952
F118.5
aI151
aF0.7847682119205298
asS'[(13, 2), (4, 4)]'
p953
(lp954
F111.75
aI143
aF0.7814685314685315
asS'[(3, 3), (5, 4)]'
p955
(lp956
F124.0
aI155
aF0.8
asS'[(12, 4), (13, 2)]'
p957
(lp958
F114.75
aI152
aF0.7549342105263158
asS'[(3, 4), (12, 3)]'
p959
(lp960
F119.25
aI154
aF0.7743506493506493
asS'[(5, 2), (3, 2)]'
p961
(lp962
F126.0
aI165
aF0.7636363636363637
asS'[(9, 1), (10, 3)]'
p963
(lp964
F121.75
aI163
aF0.7469325153374233
asS'[(9, 4), (6, 3)]'
p965
(lp966
F139.25
aI177
aF0.786723163841808
asS'[(4, 4), (5, 4)]'
p967
(lp968
F130.75
aI166
aF0.7876506024096386
asS'[(4, 1), (3, 4)]'
p969
(lp970
F111.0
aI153
aF0.7254901960784313
asS'[(7, 3), (14, 4)]'
p971
(lp972
F124.75
aI167
aF0.7470059880239521
asS'[(10, 3), (3, 3)]'
p973
(lp974
F102.25
aI134
aF0.7630597014925373
asS'[(4, 1), (2, 2)]'
p975
(lp976
F102.25
aI144
aF0.7100694444444444
asS'[(5, 3), (13, 2)]'
p977
(lp978
F106.5
aI151
aF0.7052980132450332
asS'[(7, 3), (11, 1)]'
p979
(lp980
F124.0
aI158
aF0.7848101265822784
asS'[(5, 2), (7, 1)]'
p981
(lp982
F120.5
aI162
aF0.7438271604938271
asS'[(7, 1), (14, 4)]'
p983
(lp984
F125.75
aI169
aF0.7440828402366864
asS'[(8, 1), (6, 2)]'
p985
(lp986
F113.0
aI148
aF0.7635135135135135
asS'[(9, 3), (12, 4)]'
p987
(lp988
F130.0
aI175
aF0.7428571428571429
asS'[(5, 2), (7, 4)]'
p989
(lp990
F105.5
aI137
aF0.7700729927007299
asS'[(7, 3), (11, 4)]'
p991
(lp992
F129.5
aI167
aF0.7754491017964071
asS'[(2, 2), (3, 3)]'
p993
(lp994
F126.0
aI167
aF0.7544910179640718
asS'[(14, 3), (7, 3)]'
p995
(lp996
F113.0
aI144
aF0.7847222222222222
asS'[(11, 1), (9, 3)]'
p997
(lp998
F86.25
aI122
aF0.7069672131147541
asS'[(5, 4), (10, 1)]'
p999
(lp1000
F106.25
aI138
aF0.769927536231884
asS'[(10, 2), (10, 4)]'
p1001
(lp1002
F153.25
aI170
aF0.9014705882352941
asS'[(10, 4), (9, 2)]'
p1003
(lp1004
F123.5
aI160
aF0.771875
asS'[(4, 4), (2, 2)]'
p1005
(lp1006
F128.0
aI170
aF0.7529411764705882
asS'[(14, 1), (12, 1)]'
p1007
(lp1008
F107.5
aI142
aF0.7570422535211268
asS'[(12, 3), (14, 2)]'
p1009
(lp1010
F114.75
aI144
aF0.796875
asS'[(8, 2), (3, 4)]'
p1011
(lp1012
F115.75
aI156
aF0.7419871794871795
asS'[(6, 3), (5, 2)]'
p1013
(lp1014
F120.0
aI163
aF0.7361963190184049
asS'[(13, 2), (7, 3)]'
p1015
(lp1016
F83.75
aI114
aF0.7346491228070176
asS'[(5, 4), (4, 2)]'
p1017
(lp1018
F116.75
aI153
aF0.7630718954248366
asS'[(2, 4), (13, 4)]'
p1019
(lp1020
F127.75
aI163
aF0.7837423312883436
asS'[(14, 1), (14, 4)]'
p1021
(lp1022
F134.5
aI151
aF0.890728476821192
asS'[(7, 2), (8, 1)]'
p1023
(lp1024
F127.5
aI165
aF0.7727272727272727
asS'[(6, 1), (4, 1)]'
p1025
(lp1026
F112.5
aI146
aF0.7705479452054794
asS'[(6, 4), (11, 1)]'
p1027
(lp1028
F119.0
aI156
aF0.7628205128205128
asS'[(11, 1), (13, 2)]'
p1029
(lp1030
F114.25
aI154
aF0.7418831168831169
asS'[(6, 1), (8, 4)]'
p1031
(lp1032
F107.25
aI145
aF0.7396551724137931
asS'[(12, 1), (4, 1)]'
p1033
(lp1034
F127.0
aI162
aF0.7839506172839507
asS'[(12, 1), (9, 4)]'
p1035
(lp1036
F126.5
aI162
aF0.7808641975308642
asS'[(14, 4), (10, 1)]'
p1037
(lp1038
F115.0
aI146
aF0.7876712328767124
asS'[(3, 3), (6, 4)]'
p1039
(lp1040
F123.5
aI162
aF0.7623456790123457
asS'[(5, 3), (9, 2)]'
p1041
(lp1042
F115.25
aI150
aF0.7683333333333333
asS'[(7, 4), (14, 2)]'
p1043
(lp1044
F126.0
aI171
aF0.7368421052631579
asS'[(14, 2), (12, 4)]'
p1045
(lp1046
F104.0
aI136
aF0.7647058823529411
asS'[(4, 3), (6, 3)]'
p1047
(lp1048
F103.5
aI138
aF0.75
asS'[(14, 3), (11, 3)]'
p1049
(lp1050
F115.0
aI149
aF0.7718120805369127
asS'[(8, 4), (10, 1)]'
p1051
(lp1052
F127.25
aI166
aF0.766566265060241
asS'[(5, 1), (7, 4)]'
p1053
(lp1054
F106.0
aI140
aF0.7571428571428571
asS'[(2, 3), (11, 4)]'
p1055
(lp1056
F98.0
aI138
aF0.7101449275362319
asS'[(10, 1), (6, 1)]'
p1057
(lp1058
F104.5
aI137
aF0.7627737226277372
asS'[(11, 2), (10, 4)]'
p1059
(lp1060
F108.75
aI139
aF0.7823741007194245
asS'[(12, 4), (8, 2)]'
p1061
(lp1062
F117.75
aI158
aF0.745253164556962
asS'[(5, 3), (7, 2)]'
p1063
(lp1064
F120.25
aI157
aF0.7659235668789809
asS'[(12, 4), (10, 4)]'
p1065
(lp1066
F112.5
aI147
aF0.7653061224489796
asS'[(5, 1), (11, 1)]'
p1067
(lp1068
F101.25
aI134
aF0.7555970149253731
asS'[(3, 4), (8, 3)]'
p1069
(lp1070
F112.75
aI150
aF0.7516666666666667
asS'[(3, 1), (14, 3)]'
p1071
(lp1072
F126.0
aI169
aF0.7455621301775148
asS'[(3, 4), (6, 4)]'
p1073
(lp1074
F144.25
aI189
aF0.7632275132275133
asS'[(6, 3), (6, 1)]'
p1075
(lp1076
F132.75
aI150
aF0.885
asS'[(10, 3), (13, 1)]'
p1077
(lp1078
F99.5
aI130
aF0.7653846153846153
asS'[(4, 1), (12, 1)]'
p1079
(lp1080
F121.5
aI157
aF0.7738853503184714
asS'[(4, 4), (3, 4)]'
p1081
(lp1082
F123.75
aI157
aF0.7882165605095541
asS'[(5, 2), (11, 2)]'
p1083
(lp1084
F106.0
aI141
aF0.75177304964539
asS'[(6, 1), (12, 2)]'
p1085
(lp1086
F119.5
aI150
aF0.7966666666666666
asS'[(14, 4), (10, 3)]'
p1087
(lp1088
F119.0
aI156
aF0.7628205128205128
asS'[(10, 3), (7, 2)]'
p1089
(lp1090
F124.0
aI165
aF0.7515151515151515
asS'[(10, 4), (9, 4)]'
p1091
(lp1092
F98.0
aI125
aF0.784
asS'[(2, 3), (10, 3)]'
p1093
(lp1094
F117.25
aI150
aF0.7816666666666666
asS'[(11, 2), (13, 1)]'
p1095
(lp1096
F136.5
aI173
aF0.7890173410404624
asS'[(9, 1), (13, 4)]'
p1097
(lp1098
F124.0
aI163
aF0.7607361963190185
asS'[(10, 3), (12, 3)]'
p1099
(lp1100
F107.0
aI135
aF0.7925925925925926
asS'[(5, 4), (10, 4)]'
p1101
(lp1102
F110.75
aI150
aF0.7383333333333333
asS'[(8, 3), (3, 4)]'
p1103
(lp1104
F122.0
aI163
aF0.7484662576687117
asS'[(11, 1), (6, 4)]'
p1105
(lp1106
F129.5
aI172
aF0.752906976744186
asS'[(14, 3), (11, 1)]'
p1107
(lp1108
F114.5
aI158
aF0.7246835443037974
asS'[(3, 2), (14, 4)]'
p1109
(lp1110
F111.5
aI150
aF0.7433333333333333
asS'[(8, 2), (12, 3)]'
p1111
(lp1112
F121.5
aI154
aF0.788961038961039
asS'[(10, 1), (3, 2)]'
p1113
(lp1114
F137.75
aI185
aF0.7445945945945946
asS'[(8, 2), (6, 2)]'
p1115
(lp1116
F117.25
aI158
aF0.7420886075949367
asS'[(6, 1), (8, 2)]'
p1117
(lp1118
F118.0
aI154
aF0.7662337662337663
asS'[(12, 1), (11, 4)]'
p1119
(lp1120
F104.25
aI138
aF0.7554347826086957
asS'[(11, 2), (4, 3)]'
p1121
(lp1122
F115.75
aI150
aF0.7716666666666666
asS'[(4, 3), (10, 2)]'
p1123
(lp1124
F112.75
aI147
aF0.7670068027210885
asS'[(6, 3), (14, 1)]'
p1125
(lp1126
F91.75
aI115
aF0.7978260869565217
asS'[(9, 2), (14, 1)]'
p1127
(lp1128
F116.0
aI153
aF0.7581699346405228
asS'[(3, 1), (7, 1)]'
p1129
(lp1130
F107.25
aI136
aF0.7886029411764706
asS'[(9, 3), (8, 1)]'
p1131
(lp1132
F119.5
aI149
aF0.802013422818792
asS'[(13, 4), (12, 2)]'
p1133
(lp1134
F107.0
aI144
aF0.7430555555555556
asS'[(3, 4), (6, 2)]'
p1135
(lp1136
F103.5
aI137
aF0.7554744525547445
asS'[(8, 2), (11, 3)]'
p1137
(lp1138
F124.0
aI164
aF0.7560975609756098
asS'[(14, 3), (13, 1)]'
p1139
(lp1140
F95.25
aI128
aF0.744140625
asS'[(3, 3), (14, 3)]'
p1141
(lp1142
F120.25
aI154
aF0.7808441558441559
asS'[(6, 1), (6, 2)]'
p1143
(lp1144
F118.0
aI134
aF0.8805970149253731
asS'[(7, 3), (3, 3)]'
p1145
(lp1146
F131.75
aI170
aF0.775
asS'[(9, 3), (6, 1)]'
p1147
(lp1148
F104.0
aI144
aF0.7222222222222222
asS'[(6, 3), (7, 2)]'
p1149
(lp1150
F107.25
aI138
aF0.7771739130434783
asS'[(9, 1), (6, 1)]'
p1151
(lp1152
F116.75
aI151
aF0.7731788079470199
asS'[(7, 1), (13, 1)]'
p1153
(lp1154
F115.25
aI151
aF0.7632450331125827
asS'[(8, 1), (2, 2)]'
p1155
(lp1156
F105.25
aI140
aF0.7517857142857143
asS'[(3, 1), (2, 1)]'
p1157
(lp1158
F121.25
aI157
aF0.7722929936305732
asS'[(12, 2), (3, 3)]'
p1159
(lp1160
F126.25
aI166
aF0.7605421686746988
asS'[(6, 1), (5, 2)]'
p1161
(lp1162
F119.5
aI153
aF0.7810457516339869
asS'[(11, 3), (13, 2)]'
p1163
(lp1164
F114.75
aI155
aF0.7403225806451613
asS'[(12, 1), (8, 2)]'
p1165
(lp1166
F125.0
aI160
aF0.78125
asS'[(14, 3), (10, 3)]'
p1167
(lp1168
F121.25
aI165
aF0.7348484848484849
asS'[(7, 4), (10, 1)]'
p1169
(lp1170
F106.0
aI143
aF0.7412587412587412
asS'[(9, 3), (8, 3)]'
p1171
(lp1172
F146.25
aI183
aF0.7991803278688525
asS'[(14, 3), (4, 3)]'
p1173
(lp1174
F113.25
aI142
aF0.7975352112676056
asS'[(11, 2), (8, 3)]'
p1175
(lp1176
F121.5
aI159
aF0.7641509433962265
asS'[(13, 2), (8, 3)]'
p1177
(lp1178
F134.0
aI172
aF0.7790697674418605
asS'[(9, 4), (13, 2)]'
p1179
(lp1180
F106.0
aI140
aF0.7571428571428571
asS'[(5, 1), (9, 2)]'
p1181
(lp1182
F124.25
aI167
aF0.7440119760479041
asS'[(4, 1), (12, 4)]'
p1183
(lp1184
F108.75
aI138
aF0.7880434782608695
asS'[(4, 3), (7, 4)]'
p1185
(lp1186
F107.5
aI134
aF0.8022388059701493
asS'[(10, 1), (14, 4)]'
p1187
(lp1188
F121.0
aI160
aF0.75625
asS'[(13, 4), (2, 1)]'
p1189
(lp1190
F118.25
aI152
aF0.7779605263157895
asS'[(3, 4), (14, 3)]'
p1191
(lp1192
F136.5
aI179
aF0.7625698324022346
asS'[(3, 3), (12, 4)]'
p1193
(lp1194
F107.75
aI145
aF0.743103448275862
asS'[(9, 3), (3, 3)]'
p1195
(lp1196
F121.25
aI156
aF0.7772435897435898
asS'[(10, 3), (2, 4)]'
p1197
(lp1198
F105.5
aI146
aF0.7226027397260274
asS'[(13, 3), (10, 2)]'
p1199
(lp1200
F114.5
aI152
aF0.7532894736842105
asS'[(14, 2), (13, 2)]'
p1201
(lp1202
F130.5
aI175
aF0.7457142857142857
asS'[(11, 1), (2, 1)]'
p1203
(lp1204
F116.75
aI152
aF0.7680921052631579
asS'[(14, 1), (9, 4)]'
p1205
(lp1206
F112.75
aI146
aF0.7722602739726028
asS'[(13, 4), (9, 2)]'
p1207
(lp1208
F115.75
aI154
aF0.7516233766233766
asS'[(12, 1), (3, 2)]'
p1209
(lp1210
F102.0
aI142
aF0.7183098591549296
asS'[(8, 2), (5, 2)]'
p1211
(lp1212
F112.75
aI142
aF0.7940140845070423
asS'[(3, 4), (10, 3)]'
p1213
(lp1214
F102.5
aI136
aF0.7536764705882353
asS'[(4, 4), (7, 3)]'
p1215
(lp1216
F108.0
aI147
aF0.7346938775510204
asS'[(11, 2), (8, 1)]'
p1217
(lp1218
F114.5
aI155
aF0.7387096774193549
asS'[(12, 1), (5, 4)]'
p1219
(lp1220
F104.5
aI143
aF0.7307692307692307
asS'[(8, 2), (9, 1)]'
p1221
(lp1222
F110.0
aI148
aF0.7432432432432432
asS'[(11, 3), (14, 1)]'
p1223
(lp1224
F112.25
aI149
aF0.7533557046979866
asS'[(6, 3), (3, 1)]'
p1225
(lp1226
F76.25
aI103
aF0.7402912621359223
asS'[(8, 3), (5, 2)]'
p1227
(lp1228
F120.5
aI159
aF0.7578616352201258
asS'[(8, 1), (13, 3)]'
p1229
(lp1230
F116.25
aI159
aF0.7311320754716981
asS'[(10, 2), (14, 3)]'
p1231
(lp1232
F125.5
aI166
aF0.7560240963855421
asS'[(3, 3), (7, 4)]'
p1233
(lp1234
F102.75
aI140
aF0.7339285714285714
asS'[(13, 2), (10, 4)]'
p1235
(lp1236
F125.0
aI162
aF0.7716049382716049
asS'[(3, 4), (14, 1)]'
p1237
(lp1238
F120.25
aI157
aF0.7659235668789809
asS'[(6, 4), (10, 3)]'
p1239
(lp1240
F108.75
aI144
aF0.7552083333333334
asS'[(9, 1), (2, 3)]'
p1241
(lp1242
F119.25
aI153
aF0.7794117647058824
asS'[(5, 4), (13, 2)]'
p1243
(lp1244
F122.75
aI165
aF0.7439393939393939
asS'[(9, 2), (8, 2)]'
p1245
(lp1246
F112.5
aI146
aF0.7705479452054794
asS'[(10, 1), (5, 4)]'
p1247
(lp1248
F117.25
aI155
aF0.7564516129032258
asS'[(10, 2), (4, 2)]'
p1249
(lp1250
F101.5
aI133
aF0.7631578947368421
asS'[(11, 2), (5, 3)]'
p1251
(lp1252
F124.0
aI161
aF0.7701863354037267
asS'[(13, 3), (7, 1)]'
p1253
(lp1254
F106.25
aI148
aF0.7179054054054054
asS'[(11, 1), (8, 3)]'
p1255
(lp1256
F124.0
aI158
aF0.7848101265822784
asS'[(8, 1), (7, 1)]'
p1257
(lp1258
F123.25
aI159
aF0.7751572327044025
asS'[(10, 3), (2, 2)]'
p1259
(lp1260
F110.5
aI144
aF0.7673611111111112
asS'[(7, 1), (13, 4)]'
p1261
(lp1262
F116.0
aI161
aF0.7204968944099379
asS'[(3, 4), (3, 2)]'
p1263
(lp1264
F144.25
aI160
aF0.9015625
asS'[(9, 1), (6, 3)]'
p1265
(lp1266
F143.75
aI189
aF0.7605820105820106
asS'[(9, 2), (12, 3)]'
p1267
(lp1268
F102.75
aI138
aF0.7445652173913043
asS'[(3, 1), (11, 3)]'
p1269
(lp1270
F104.0
aI137
aF0.7591240875912408
asS'[(10, 3), (13, 2)]'
p1271
(lp1272
F111.75
aI148
aF0.7550675675675675
asS'[(11, 2), (3, 2)]'
p1273
(lp1274
F103.25
aI133
aF0.7763157894736842
asS'[(7, 1), (14, 1)]'
p1275
(lp1276
F112.25
aI147
aF0.7636054421768708
asS'[(2, 3), (3, 1)]'
p1277
(lp1278
F113.5
aI156
aF0.7275641025641025
asS'[(10, 3), (12, 1)]'
p1279
(lp1280
F122.75
aI159
aF0.7720125786163522
asS'[(8, 2), (2, 3)]'
p1281
(lp1282
F122.0
aI158
aF0.7721518987341772
asS'[(11, 4), (12, 3)]'
p1283
(lp1284
F116.75
aI154
aF0.7581168831168831
asS'[(7, 2), (11, 3)]'
p1285
(lp1286
F128.5
aI170
aF0.7558823529411764
asS'[(2, 3), (3, 3)]'
p1287
(lp1288
F113.25
aI155
aF0.7306451612903225
asS'[(5, 3), (6, 3)]'
p1289
(lp1290
F134.5
aI172
aF0.7819767441860465
asS'[(5, 3), (2, 2)]'
p1291
(lp1292
F117.5
aI153
aF0.7679738562091504
asS'[(2, 1), (3, 2)]'
p1293
(lp1294
F126.5
aI167
aF0.7574850299401198
asS'[(6, 1), (14, 1)]'
p1295
(lp1296
F109.25
aI149
aF0.7332214765100671
asS'[(12, 4), (6, 4)]'
p1297
(lp1298
F109.25
aI138
aF0.7916666666666666
asS'[(13, 3), (5, 1)]'
p1299
(lp1300
F118.75
aI150
aF0.7916666666666666
asS'[(9, 1), (13, 2)]'
p1301
(lp1302
F115.0
aI152
aF0.756578947368421
asS'[(9, 4), (9, 2)]'
p1303
(lp1304
F156.75
aI169
aF0.9275147928994083
asS'[(14, 2), (4, 4)]'
p1305
(lp1306
F100.75
aI139
aF0.7248201438848921
asS'[(6, 4), (11, 3)]'
p1307
(lp1308
F109.25
aI148
aF0.7381756756756757
asS'[(13, 1), (12, 1)]'
p1309
(lp1310
F116.0
aI142
aF0.8169014084507042
asS'[(7, 1), (14, 3)]'
p1311
(lp1312
F114.25
aI154
aF0.7418831168831169
asS'[(7, 3), (14, 2)]'
p1313
(lp1314
F103.25
aI140
aF0.7375
asS'[(5, 2), (2, 2)]'
p1315
(lp1316
F118.0
aI147
aF0.8027210884353742
asS'[(7, 1), (4, 3)]'
p1317
(lp1318
F128.5
aI166
aF0.7740963855421686
asS'[(10, 2), (3, 1)]'
p1319
(lp1320
F119.75
aI151
aF0.793046357615894
asS'[(5, 3), (13, 4)]'
p1321
(lp1322
F114.25
aI147
aF0.7772108843537415
asS'[(6, 2), (9, 3)]'
p1323
(lp1324
F117.5
aI151
aF0.7781456953642384
asS'[(11, 1), (9, 4)]'
p1325
(lp1326
F114.75
aI150
aF0.765
asS'[(10, 1), (10, 3)]'
p1327
(lp1328
F136.0
aI148
aF0.918918918918919
asS'[(14, 3), (8, 2)]'
p1329
(lp1330
F127.25
aI164
aF0.7759146341463414
asS'[(3, 1), (11, 1)]'
p1331
(lp1332
F132.25
aI175
aF0.7557142857142857
asS'[(4, 1), (5, 1)]'
p1333
(lp1334
F129.75
aI168
aF0.7723214285714286
asS'[(11, 4), (4, 4)]'
p1335
(lp1336
F125.75
aI166
aF0.7575301204819277
asS'[(12, 3), (3, 1)]'
p1337
(lp1338
F108.25
aI148
aF0.731418918918919
asS'[(10, 1), (6, 4)]'
p1339
(lp1340
F125.5
aI160
aF0.784375
asS'[(4, 1), (11, 2)]'
p1341
(lp1342
F121.75
aI164
aF0.7423780487804879
asS'[(6, 3), (2, 3)]'
p1343
(lp1344
F95.25
aI130
aF0.7326923076923076
asS'[(8, 4), (9, 3)]'
p1345
(lp1346
F124.5
aI155
aF0.8032258064516129
asS'[(2, 1), (5, 3)]'
p1347
(lp1348
F105.25
aI148
aF0.7111486486486487
asS'[(8, 1), (3, 4)]'
p1349
(lp1350
F102.5
aI139
aF0.737410071942446
asS'[(4, 3), (6, 4)]'
p1351
(lp1352
F116.25
aI147
aF0.7908163265306123
asS'[(8, 2), (14, 4)]'
p1353
(lp1354
F109.75
aI145
aF0.756896551724138
asS'[(6, 2), (12, 2)]'
p1355
(lp1356
F97.25
aI133
aF0.731203007518797
asS'[(13, 2), (8, 2)]'
p1357
(lp1358
F118.5
aI150
aF0.79
asS'[(14, 4), (3, 2)]'
p1359
(lp1360
F115.25
aI158
aF0.7294303797468354
asS'[(7, 2), (4, 4)]'
p1361
(lp1362
F96.5
aI124
aF0.7782258064516129
asS'[(8, 4), (11, 3)]'
p1363
(lp1364
F121.25
aI166
aF0.7304216867469879
asS'[(8, 3), (7, 1)]'
p1365
(lp1366
F121.25
aI150
aF0.8083333333333333
asS'[(8, 3), (5, 3)]'
p1367
(lp1368
F120.0
aI155
aF0.7741935483870968
asS'[(4, 2), (2, 2)]'
p1369
(lp1370
F119.25
aI157
aF0.7595541401273885
asS'[(9, 2), (5, 3)]'
p1371
(lp1372
F111.5
aI144
aF0.7743055555555556
asS'[(10, 4), (3, 4)]'
p1373
(lp1374
F97.25
aI127
aF0.765748031496063
asS'[(4, 2), (3, 4)]'
p1375
(lp1376
F99.25
aI137
aF0.7244525547445255
asS'[(6, 1), (7, 3)]'
p1377
(lp1378
F132.75
aI171
aF0.7763157894736842
asS'[(11, 3), (3, 1)]'
p1379
(lp1380
F122.0
aI155
aF0.7870967741935484
asS'[(9, 4), (8, 4)]'
p1381
(lp1382
F123.75
aI155
aF0.7983870967741935
asS'[(4, 3), (14, 3)]'
p1383
(lp1384
F115.0
aI147
aF0.782312925170068
asS'[(2, 3), (11, 3)]'
p1385
(lp1386
F112.75
aI143
aF0.7884615384615384
asS'[(2, 2), (5, 4)]'
p1387
(lp1388
F115.75
aI164
aF0.7057926829268293
asS'[(7, 2), (7, 1)]'
p1389
(lp1390
F133.5
aI149
aF0.8959731543624161
asS'[(10, 3), (5, 4)]'
p1391
(lp1392
F130.25
aI171
aF0.7616959064327485
asS'[(14, 1), (13, 3)]'
p1393
(lp1394
F127.0
aI165
aF0.7696969696969697
asS'[(12, 3), (9, 2)]'
p1395
(lp1396
F105.5
aI141
aF0.74822695035461
asS'[(14, 2), (9, 3)]'
p1397
(lp1398
F116.75
aI154
aF0.7581168831168831
asS'[(11, 4), (13, 1)]'
p1399
(lp1400
F109.25
aI135
aF0.8092592592592592
asS'[(13, 1), (2, 4)]'
p1401
(lp1402
F94.5
aI132
aF0.7159090909090909
asS'[(12, 3), (5, 1)]'
p1403
(lp1404
F120.75
aI159
aF0.7594339622641509
asS'[(3, 2), (7, 4)]'
p1405
(lp1406
F105.5
aI139
aF0.7589928057553957
asS'[(2, 2), (13, 2)]'
p1407
(lp1408
F113.0
aI147
aF0.7687074829931972
asS'[(4, 3), (13, 3)]'
p1409
(lp1410
F130.0
aI168
aF0.7738095238095238
asS'[(5, 3), (7, 1)]'
p1411
(lp1412
F116.75
aI147
aF0.79421768707483
asS'[(6, 4), (4, 3)]'
p1413
(lp1414
F95.25
aI126
aF0.7559523809523809
asS'[(12, 4), (7, 1)]'
p1415
(lp1416
F115.25
aI151
aF0.7632450331125827
asS'[(11, 2), (12, 2)]'
p1417
(lp1418
F119.5
aI155
aF0.7709677419354839
asS'[(13, 1), (10, 3)]'
p1419
(lp1420
F113.25
aI148
aF0.7652027027027027
asS'[(7, 1), (10, 2)]'
p1421
(lp1422
F134.0
aI173
aF0.7745664739884393
asS'[(12, 4), (2, 1)]'
p1423
(lp1424
F108.75
aI142
aF0.7658450704225352
asS'[(5, 4), (2, 1)]'
p1425
(lp1426
F128.0
aI163
aF0.7852760736196319
asS'[(3, 1), (8, 1)]'
p1427
(lp1428
F130.25
aI173
aF0.7528901734104047
asS'[(13, 2), (9, 4)]'
p1429
(lp1430
F113.5
aI150
aF0.7566666666666667
asS'[(12, 1), (12, 4)]'
p1431
(lp1432
F130.75
aI145
aF0.9017241379310345
asS'[(2, 1), (4, 1)]'
p1433
(lp1434
F130.0
aI167
aF0.7784431137724551
asS'[(10, 3), (7, 1)]'
p1435
(lp1436
F114.75
aI156
aF0.7355769230769231
asS'[(4, 4), (3, 3)]'
p1437
(lp1438
F118.0
aI158
aF0.7468354430379747
asS'[(4, 2), (3, 2)]'
p1439
(lp1440
F110.0
aI139
aF0.7913669064748201
asS'[(3, 2), (4, 4)]'
p1441
(lp1442
F107.5
aI139
aF0.7733812949640287
asS'[(7, 1), (9, 3)]'
p1443
(lp1444
F115.5
aI148
aF0.7804054054054054
asS'[(3, 4), (10, 1)]'
p1445
(lp1446
F113.75
aI150
aF0.7583333333333333
asS'[(3, 1), (6, 3)]'
p1447
(lp1448
F123.0
aI165
aF0.7454545454545455
asS'[(10, 4), (2, 2)]'
p1449
(lp1450
F134.75
aI175
aF0.77
asS'[(4, 3), (3, 1)]'
p1451
(lp1452
F103.0
aI133
aF0.7744360902255639
asS'[(4, 3), (5, 2)]'
p1453
(lp1454
F118.5
aI150
aF0.79
asS'[(13, 3), (3, 3)]'
p1455
(lp1456
F116.0
aI152
aF0.7631578947368421
asS'[(3, 4), (13, 3)]'
p1457
(lp1458
F96.5
aI131
aF0.7366412213740458
asS'[(4, 1), (14, 4)]'
p1459
(lp1460
F106.5
aI148
aF0.7195945945945946
asS'[(9, 1), (3, 3)]'
p1461
(lp1462
F113.0
aI152
aF0.743421052631579
asS'[(11, 3), (9, 2)]'
p1463
(lp1464
F112.25
aI146
aF0.7688356164383562
asS'[(8, 1), (4, 4)]'
p1465
(lp1466
F101.75
aI139
aF0.7320143884892086
asS'[(11, 3), (10, 2)]'
p1467
(lp1468
F115.75
aI151
aF0.7665562913907285
asS'[(5, 2), (14, 1)]'
p1469
(lp1470
F99.25
aI134
aF0.7406716417910447
asS'[(2, 4), (5, 4)]'
p1471
(lp1472
F120.5
aI158
aF0.7626582278481012
asS'[(14, 2), (13, 4)]'
p1473
(lp1474
F93.75
aI127
aF0.7381889763779528
asS'[(5, 1), (6, 4)]'
p1475
(lp1476
F112.75
aI143
aF0.7884615384615384
asS'[(8, 4), (13, 4)]'
p1477
(lp1478
F109.0
aI146
aF0.7465753424657534
asS'[(13, 1), (8, 3)]'
p1479
(lp1480
F146.5
aI189
aF0.7751322751322751
asS'[(2, 3), (5, 1)]'
p1481
(lp1482
F108.75
aI144
aF0.7552083333333334
asS'[(13, 2), (11, 1)]'
p1483
(lp1484
F130.5
aI163
aF0.8006134969325154
asS'[(14, 2), (2, 2)]'
p1485
(lp1486
F112.25
aI142
aF0.7904929577464789
asS'[(11, 1), (10, 1)]'
p1487
(lp1488
F109.0
aI142
aF0.7676056338028169
asS'[(11, 1), (11, 4)]'
p1489
(lp1490
F133.75
aI149
aF0.8976510067114094
asS'[(6, 4), (6, 1)]'
p1491
(lp1492
F124.0
aI136
aF0.9117647058823529
asS'[(13, 4), (3, 2)]'
p1493
(lp1494
F99.25
aI130
aF0.7634615384615384
asS'[(2, 4), (4, 3)]'
p1495
(lp1496
F106.5
aI141
aF0.7553191489361702
asS'[(2, 4), (12, 2)]'
p1497
(lp1498
F119.25
aI167
aF0.7140718562874252
asS'[(14, 2), (10, 1)]'
p1499
(lp1500
F110.0
aI144
aF0.7638888888888888
asS'[(12, 3), (10, 4)]'
p1501
(lp1502
F127.25
aI164
aF0.7759146341463414
asS'[(6, 3), (14, 3)]'
p1503
(lp1504
F106.0
aI143
aF0.7412587412587412
asS'[(6, 2), (12, 3)]'
p1505
(lp1506
F113.75
aI146
aF0.7791095890410958
asS'[(11, 2), (13, 2)]'
p1507
(lp1508
F97.75
aI131
aF0.7461832061068703
asS'[(2, 2), (12, 1)]'
p1509
(lp1510
F116.5
aI158
aF0.7373417721518988
asS'[(6, 4), (7, 3)]'
p1511
(lp1512
F113.25
aI143
aF0.791958041958042
asS'[(8, 4), (8, 2)]'
p1513
(lp1514
F144.25
aI159
aF0.9072327044025157
asS'[(3, 3), (12, 3)]'
p1515
(lp1516
F108.25
aI143
aF0.756993006993007
asS'[(2, 1), (2, 3)]'
p1517
(lp1518
F147.5
aI164
aF0.899390243902439
asS'[(9, 1), (9, 4)]'
p1519
(lp1520
F160.25
aI177
aF0.905367231638418
asS'[(4, 1), (2, 3)]'
p1521
(lp1522
F114.5
aI151
aF0.7582781456953642
asS'[(14, 3), (8, 4)]'
p1523
(lp1524
F96.25
aI131
aF0.7347328244274809
asS'[(11, 2), (8, 4)]'
p1525
(lp1526
F117.0
aI157
aF0.7452229299363057
asS'[(11, 3), (14, 4)]'
p1527
(lp1528
F124.5
aI159
aF0.7830188679245284
asS'[(5, 1), (6, 1)]'
p1529
(lp1530
F118.25
aI148
aF0.7989864864864865
asS'[(8, 1), (7, 4)]'
p1531
(lp1532
F118.75
aI152
aF0.78125
asS'[(5, 1), (3, 1)]'
p1533
(lp1534
F117.75
aI153
aF0.7696078431372549
asS'[(3, 2), (13, 1)]'
p1535
(lp1536
F137.5
aI180
aF0.7638888888888888
asS'[(7, 3), (5, 2)]'
p1537
(lp1538
F129.25
aI169
aF0.764792899408284
asS'[(5, 1), (10, 2)]'
p1539
(lp1540
F110.25
aI152
aF0.725328947368421
asS'[(9, 2), (4, 4)]'
p1541
(lp1542
F108.75
aI145
aF0.75
asS'[(13, 4), (6, 3)]'
p1543
(lp1544
F125.5
aI159
aF0.789308176100629
asS'[(3, 1), (12, 2)]'
p1545
(lp1546
F105.75
aI144
aF0.734375
asS'[(4, 1), (6, 2)]'
p1547
(lp1548
F102.5
aI137
aF0.7481751824817519
asS'[(14, 3), (9, 2)]'
p1549
(lp1550
F103.0
aI134
aF0.7686567164179104
asS'[(5, 4), (11, 4)]'
p1551
(lp1552
F122.75
aI151
aF0.8129139072847682
asS'[(10, 2), (9, 4)]'
p1553
(lp1554
F117.5
aI152
aF0.7730263157894737
asS'[(2, 4), (8, 3)]'
p1555
(lp1556
F114.25
aI147
aF0.7772108843537415
asS'[(8, 2), (5, 4)]'
p1557
(lp1558
F97.5
aI132
aF0.7386363636363636
asS'[(2, 1), (9, 2)]'
p1559
(lp1560
F107.25
aI136
aF0.7886029411764706
asS'[(8, 2), (5, 1)]'
p1561
(lp1562
F114.5
aI148
aF0.7736486486486487
asS'[(2, 1), (11, 4)]'
p1563
(lp1564
F117.25
aI155
aF0.7564516129032258
asS'[(12, 3), (6, 1)]'
p1565
(lp1566
F118.75
aI155
aF0.7661290322580645
asS'[(11, 2), (8, 2)]'
p1567
(lp1568
F121.0
aI153
aF0.7908496732026143
asS'[(4, 1), (8, 2)]'
p1569
(lp1570
F114.5
aI151
aF0.7582781456953642
asS'[(5, 4), (8, 3)]'
p1571
(lp1572
F111.5
aI147
aF0.7585034013605442
asS'[(5, 2), (8, 2)]'
p1573
(lp1574
F111.5
aI148
aF0.7533783783783784
asS'[(13, 1), (5, 1)]'
p1575
(lp1576
F130.0
aI164
aF0.7926829268292683
asS'[(13, 2), (14, 1)]'
p1577
(lp1578
F100.75
aI136
aF0.7408088235294118
asS'[(10, 2), (14, 4)]'
p1579
(lp1580
F105.75
aI145
aF0.7293103448275862
asS'[(11, 3), (10, 3)]'
p1581
(lp1582
F105.75
aI131
aF0.8072519083969466
asS'[(8, 3), (11, 4)]'
p1583
(lp1584
F105.5
aI140
aF0.7535714285714286
asS'[(11, 4), (2, 4)]'
p1585
(lp1586
F130.75
aI166
aF0.7876506024096386
asS'[(9, 2), (8, 1)]'
p1587
(lp1588
F119.75
aI156
aF0.7676282051282052
asS'[(5, 4), (13, 1)]'
p1589
(lp1590
F114.25
aI152
aF0.7516447368421053
asS'[(14, 4), (4, 4)]'
p1591
(lp1592
F121.75
aI155
aF0.785483870967742
asS'[(11, 1), (5, 1)]'
p1593
(lp1594
F109.0
aI147
aF0.7414965986394558
asS'[(11, 3), (13, 1)]'
p1595
(lp1596
F114.25
aI148
aF0.7719594594594594
asS'[(9, 3), (4, 4)]'
p1597
(lp1598
F114.25
aI146
aF0.7825342465753424
asS'[(13, 2), (6, 3)]'
p1599
(lp1600
F114.0
aI144
aF0.7916666666666666
asS'[(11, 4), (13, 3)]'
p1601
(lp1602
F129.25
aI166
aF0.7786144578313253
asS'[(14, 2), (9, 1)]'
p1603
(lp1604
F122.0
aI163
aF0.7484662576687117
asS'[(12, 1), (10, 3)]'
p1605
(lp1606
F129.25
aI170
aF0.7602941176470588
asS'[(7, 2), (10, 3)]'
p1607
(lp1608
F113.25
aI146
aF0.7756849315068494
asS'[(7, 4), (9, 1)]'
p1609
(lp1610
F133.5
aI179
aF0.7458100558659218
asS'[(7, 3), (12, 4)]'
p1611
(lp1612
F103.5
aI142
aF0.7288732394366197
asS'[(5, 2), (4, 4)]'
p1613
(lp1614
F124.5
aI161
aF0.7732919254658385
asS'[(6, 4), (10, 4)]'
p1615
(lp1616
F107.75
aI136
aF0.7922794117647058
asS'[(10, 2), (3, 4)]'
p1617
(lp1618
F116.0
aI155
aF0.7483870967741936
asS'[(5, 3), (6, 4)]'
p1619
(lp1620
F127.75
aI163
aF0.7837423312883436
asS'[(4, 3), (8, 3)]'
p1621
(lp1622
F116.25
aI153
aF0.7598039215686274
asS'[(10, 3), (2, 1)]'
p1623
(lp1624
F125.75
aI164
aF0.7667682926829268
asS'[(12, 2), (13, 2)]'
p1625
(lp1626
F115.25
aI148
aF0.7787162162162162
asS'[(14, 2), (4, 3)]'
p1627
(lp1628
F99.0
aI137
aF0.7226277372262774
asS'[(12, 4), (14, 3)]'
p1629
(lp1630
F110.0
aI143
aF0.7692307692307693
asS'[(4, 1), (13, 4)]'
p1631
(lp1632
F115.75
aI154
aF0.7516233766233766
asS'[(5, 3), (3, 2)]'
p1633
(lp1634
F112.25
aI147
aF0.7636054421768708
asS'[(3, 4), (2, 3)]'
p1635
(lp1636
F111.25
aI151
aF0.7367549668874173
asS'[(4, 1), (8, 4)]'
p1637
(lp1638
F124.5
aI164
aF0.7591463414634146
asS'[(14, 4), (14, 2)]'
p1639
(lp1640
F152.5
aI169
aF0.9023668639053254
asS'[(11, 2), (7, 4)]'
p1641
(lp1642
F117.25
aI162
aF0.7237654320987654
asS'[(5, 1), (13, 4)]'
p1643
(lp1644
F120.75
aI154
aF0.7840909090909091
asS'[(7, 3), (4, 3)]'
p1645
(lp1646
F135.75
aI169
aF0.8032544378698225
asS'[(13, 1), (12, 2)]'
p1647
(lp1648
F125.0
aI163
aF0.7668711656441718
asS'[(4, 3), (11, 2)]'
p1649
(lp1650
F108.0
aI139
aF0.7769784172661871
asS'[(3, 3), (13, 2)]'
p1651
(lp1652
F116.0
aI153
aF0.7581699346405228
asS'[(9, 3), (13, 2)]'
p1653
(lp1654
F114.75
aI158
aF0.7262658227848101
asS'[(2, 4), (3, 2)]'
p1655
(lp1656
F116.75
aI163
aF0.7162576687116564
asS'[(13, 1), (11, 1)]'
p1657
(lp1658
F117.25
aI149
aF0.7869127516778524
asS'[(12, 4), (4, 2)]'
p1659
(lp1660
F109.75
aI151
aF0.7268211920529801
asS'[(8, 4), (12, 2)]'
p1661
(lp1662
F121.75
aI158
aF0.7705696202531646
asS'[(5, 4), (3, 4)]'
p1663
(lp1664
F110.0
aI139
aF0.7913669064748201
asS'[(12, 1), (14, 4)]'
p1665
(lp1666
F126.25
aI163
aF0.7745398773006135
asS'[(10, 4), (5, 4)]'
p1667
(lp1668
F112.5
aI149
aF0.7550335570469798
asS'[(6, 4), (5, 3)]'
p1669
(lp1670
F124.75
aI164
aF0.760670731707317
asS'[(6, 4), (10, 2)]'
p1671
(lp1672
F124.0
aI161
aF0.7701863354037267
asS'[(10, 2), (4, 1)]'
p1673
(lp1674
F115.75
aI152
aF0.7615131578947368
asS'[(8, 4), (11, 4)]'
p1675
(lp1676
F121.25
aI149
aF0.8137583892617449
asS'[(13, 1), (5, 4)]'
p1677
(lp1678
F122.75
aI165
aF0.7439393939393939
asS'[(11, 3), (11, 2)]'
p1679
(lp1680
F137.5
aI153
aF0.8986928104575164
asS'[(10, 4), (13, 3)]'
p1681
(lp1682
F127.75
aI162
aF0.7885802469135802
asS'[(12, 2), (14, 1)]'
p1683
(lp1684
F114.25
aI154
aF0.7418831168831169
asS'[(8, 3), (4, 1)]'
p1685
(lp1686
F115.25
aI147
aF0.7840136054421769
asS'[(13, 4), (8, 4)]'
p1687
(lp1688
F95.25
aI126
aF0.7559523809523809
asS'[(13, 1), (2, 1)]'
p1689
(lp1690
F110.25
aI151
aF0.7301324503311258
asS'[(6, 1), (7, 4)]'
p1691
(lp1692
F111.5
aI144
aF0.7743055555555556
asS'[(7, 3), (9, 2)]'
p1693
(lp1694
F116.0
aI150
aF0.7733333333333333
asS'[(8, 4), (5, 3)]'
p1695
(lp1696
F123.5
aI162
aF0.7623456790123457
asS'[(12, 2), (4, 3)]'
p1697
(lp1698
F120.5
aI162
aF0.7438271604938271
asS'[(10, 4), (4, 4)]'
p1699
(lp1700
F128.5
aI161
aF0.7981366459627329
asS'[(14, 1), (13, 4)]'
p1701
(lp1702
F120.75
aI159
aF0.7594339622641509
asS'[(6, 3), (13, 2)]'
p1703
(lp1704
F104.0
aI137
aF0.7591240875912408
asS'[(13, 3), (7, 3)]'
p1705
(lp1706
F108.0
aI151
aF0.7152317880794702
asS'[(3, 1), (8, 4)]'
p1707
(lp1708
F117.0
aI151
aF0.7748344370860927
asS'[(7, 2), (14, 4)]'
p1709
(lp1710
F115.5
aI151
aF0.7649006622516556
asS'[(7, 1), (12, 4)]'
p1711
(lp1712
F120.25
aI168
aF0.7157738095238095
asS'[(6, 1), (2, 2)]'
p1713
(lp1714
F112.0
aI142
aF0.7887323943661971
asS'[(2, 3), (2, 2)]'
p1715
(lp1716
F127.5
aI145
aF0.8793103448275862
asS'[(13, 1), (2, 3)]'
p1717
(lp1718
F109.75
aI148
aF0.7415540540540541
asS'[(4, 3), (9, 1)]'
p1719
(lp1720
F100.5
aI143
aF0.7027972027972028
asS'[(12, 3), (9, 4)]'
p1721
(lp1722
F120.75
aI155
aF0.7790322580645161
asS'[(5, 2), (14, 2)]'
p1723
(lp1724
F108.5
aI137
aF0.791970802919708
asS'[(10, 3), (6, 3)]'
p1725
(lp1726
F101.75
aI134
aF0.7593283582089553
asS'[(6, 3), (10, 4)]'
p1727
(lp1728
F121.0
aI159
aF0.7610062893081762
asS'[(9, 2), (7, 1)]'
p1729
(lp1730
F114.25
aI147
aF0.7772108843537415
asS'[(12, 3), (9, 1)]'
p1731
(lp1732
F126.0
aI167
aF0.7544910179640718
asS'[(6, 4), (4, 4)]'
p1733
(lp1734
F129.0
aI165
aF0.7818181818181819
asS'[(2, 3), (12, 3)]'
p1735
(lp1736
F104.0
aI140
aF0.7428571428571429
asS'[(14, 2), (9, 4)]'
p1737
(lp1738
F106.75
aI135
aF0.7907407407407407
asS'[(4, 4), (10, 1)]'
p1739
(lp1740
F110.0
aI144
aF0.7638888888888888
asS'[(3, 1), (12, 4)]'
p1741
(lp1742
F111.0
aI146
aF0.7602739726027398
asS'[(12, 3), (7, 2)]'
p1743
(lp1744
F106.75
aI136
aF0.7849264705882353
asS'[(9, 4), (12, 3)]'
p1745
(lp1746
F148.0
aI193
aF0.7668393782383419
asS'[(5, 1), (8, 3)]'
p1747
(lp1748
F116.5
aI147
aF0.7925170068027211
asS'[(3, 2), (11, 4)]'
p1749
(lp1750
F117.75
aI158
aF0.745253164556962
asS'[(3, 1), (5, 2)]'
p1751
(lp1752
F116.75
aI158
aF0.7389240506329114
asS'[(14, 4), (9, 3)]'
p1753
(lp1754
F115.75
aI152
aF0.7615131578947368
asS'[(6, 2), (6, 3)]'
p1755
(lp1756
F142.0
aI159
aF0.8930817610062893
asS'[(6, 2), (4, 3)]'
p1757
(lp1758
F131.75
aI170
aF0.775
asS'[(5, 4), (8, 1)]'
p1759
(lp1760
F120.25
aI152
aF0.7911184210526315
asS'[(4, 1), (10, 2)]'
p1761
(lp1762
F122.5
aI158
aF0.7753164556962026
asS'[(2, 3), (13, 4)]'
p1763
(lp1764
F102.0
aI136
aF0.75
asS'[(12, 2), (2, 3)]'
p1765
(lp1766
F106.5
aI138
aF0.7717391304347826
asS'[(9, 2), (13, 4)]'
p1767
(lp1768
F110.75
aI144
aF0.7690972222222222
asS'[(3, 3), (10, 2)]'
p1769
(lp1770
F108.5
aI150
aF0.7233333333333334
asS'[(12, 2), (9, 4)]'
p1771
(lp1772
F124.0
aI158
aF0.7848101265822784
asS'[(3, 4), (10, 2)]'
p1773
(lp1774
F123.5
aI159
aF0.7767295597484277
asS'[(11, 2), (6, 3)]'
p1775
(lp1776
F117.5
aI154
aF0.762987012987013
asS'[(12, 1), (2, 2)]'
p1777
(lp1778
F119.0
aI160
aF0.74375
asS'[(7, 4), (2, 3)]'
p1779
(lp1780
F122.0
aI165
aF0.7393939393939394
asS'[(4, 4), (12, 1)]'
p1781
(lp1782
F125.0
aI165
aF0.7575757575757576
asS'[(12, 4), (9, 3)]'
p1783
(lp1784
F130.0
aI168
aF0.7738095238095238
asS'[(7, 3), (9, 4)]'
p1785
(lp1786
F121.75
aI157
aF0.7754777070063694
asS'[(11, 4), (9, 4)]'
p1787
(lp1788
F111.5
aI143
aF0.7797202797202797
asS'[(5, 1), (5, 2)]'
p1789
(lp1790
F145.25
aI159
aF0.9135220125786163
asS'[(3, 2), (12, 4)]'
p1791
(lp1792
F111.5
aI145
aF0.7689655172413793
asS'[(2, 4), (5, 3)]'
p1793
(lp1794
F122.25
aI157
aF0.7786624203821656
asS'[(3, 1), (6, 1)]'
p1795
(lp1796
F116.5
aI155
aF0.7516129032258064
asS'[(3, 2), (9, 3)]'
p1797
(lp1798
F122.0
aI162
aF0.7530864197530864
asS'[(3, 4), (6, 1)]'
p1799
(lp1800
F99.5
aI134
aF0.7425373134328358
asS'[(7, 3), (6, 2)]'
p1801
(lp1802
F123.25
aI163
aF0.7561349693251533
asS'[(11, 1), (4, 2)]'
p1803
(lp1804
F103.0
aI139
aF0.7410071942446043
asS'[(5, 4), (9, 2)]'
p1805
(lp1806
F100.5
aI129
aF0.7790697674418605
asS'[(11, 3), (5, 1)]'
p1807
(lp1808
F106.75
aI139
aF0.7679856115107914
asS'[(12, 3), (13, 2)]'
p1809
(lp1810
F100.5
aI129
aF0.7790697674418605
asS'[(12, 4), (11, 2)]'
p1811
(lp1812
F104.5
aI140
aF0.7464285714285714
asS'[(6, 1), (11, 4)]'
p1813
(lp1814
F106.75
aI142
aF0.7517605633802817
asS'[(11, 3), (5, 4)]'
p1815
(lp1816
F111.25
aI148
aF0.7516891891891891
asS'[(7, 2), (2, 4)]'
p1817
(lp1818
F129.5
aI168
aF0.7708333333333334
asS'[(14, 1), (12, 3)]'
p1819
(lp1820
F108.0
aI141
aF0.7659574468085106
asS'[(12, 2), (14, 4)]'
p1821
(lp1822
F124.5
aI165
aF0.7545454545454545
asS'[(2, 3), (5, 2)]'
p1823
(lp1824
F110.75
aI146
aF0.7585616438356164
asS'[(8, 3), (9, 3)]'
p1825
(lp1826
F133.25
aI169
aF0.7884615384615384
asS'[(7, 1), (12, 2)]'
p1827
(lp1828
F125.25
aI162
aF0.7731481481481481
asS'[(13, 1), (6, 2)]'
p1829
(lp1830
F127.75
aI168
aF0.7604166666666666
asS'[(4, 2), (5, 1)]'
p1831
(lp1832
F129.75
aI167
aF0.7769461077844312
asS'[(2, 4), (9, 4)]'
p1833
(lp1834
F111.75
aI141
aF0.7925531914893617
asS'[(5, 2), (9, 3)]'
p1835
(lp1836
F119.25
aI154
aF0.7743506493506493
asS'[(2, 3), (7, 2)]'
p1837
(lp1838
F105.75
aI154
aF0.6866883116883117
asS'[(5, 2), (9, 2)]'
p1839
(lp1840
F104.25
aI143
aF0.7290209790209791
asS'[(12, 1), (9, 2)]'
p1841
(lp1842
F124.75
aI161
aF0.7748447204968945
asS'[(2, 2), (14, 1)]'
p1843
(lp1844
F133.25
aI178
aF0.7485955056179775
asS'[(7, 3), (13, 1)]'
p1845
(lp1846
F117.25
aI153
aF0.7663398692810458
asS'[(5, 2), (5, 1)]'
p1847
(lp1848
F143.75
aI161
aF0.8928571428571429
asS'[(2, 2), (4, 4)]'
p1849
(lp1850
F115.25
aI150
aF0.7683333333333333
asS'[(12, 3), (11, 2)]'
p1851
(lp1852
F127.0
aI166
aF0.7650602409638554
asS'[(8, 3), (10, 3)]'
p1853
(lp1854
F119.25
aI151
aF0.7897350993377483
asS'[(11, 1), (14, 3)]'
p1855
(lp1856
F130.25
aI173
aF0.7528901734104047
asS'[(10, 2), (9, 2)]'
p1857
(lp1858
F132.0
aI171
aF0.7719298245614035
asS'[(4, 1), (14, 1)]'
p1859
(lp1860
F110.0
aI144
aF0.7638888888888888
asS'[(10, 3), (8, 1)]'
p1861
(lp1862
F127.0
aI162
aF0.7839506172839507
asS'[(3, 4), (7, 2)]'
p1863
(lp1864
F110.75
aI150
aF0.7383333333333333
asS'[(8, 4), (10, 3)]'
p1865
(lp1866
F106.25
aI140
aF0.7589285714285714
asS'[(7, 3), (2, 1)]'
p1867
(lp1868
F122.0
aI162
aF0.7530864197530864
asS'[(4, 4), (9, 3)]'
p1869
(lp1870
F109.5
aI142
aF0.7711267605633803
asS'[(9, 3), (12, 2)]'
p1871
(lp1872
F117.0
aI148
aF0.7905405405405406
asS'[(12, 2), (13, 1)]'
p1873
(lp1874
F112.25
aI148
aF0.7584459459459459
asS'[(11, 3), (8, 3)]'
p1875
(lp1876
F121.75
aI151
aF0.8062913907284768
asS'[(8, 4), (13, 3)]'
p1877
(lp1878
F104.25
aI146
aF0.714041095890411
asS'[(7, 2), (3, 3)]'
p1879
(lp1880
F116.5
aI157
aF0.7420382165605095
asS'[(3, 4), (4, 1)]'
p1881
(lp1882
F108.75
aI148
aF0.7347972972972973
asS'[(9, 2), (9, 3)]'
p1883
(lp1884
F144.0
aI161
aF0.8944099378881988
asS'[(14, 1), (4, 1)]'
p1885
(lp1886
F104.0
aI137
aF0.7591240875912408
asS'[(14, 1), (6, 3)]'
p1887
(lp1888
F128.0
aI167
aF0.7664670658682635
asS'[(14, 1), (2, 2)]'
p1889
(lp1890
F111.0
aI141
aF0.7872340425531915
asS'[(5, 2), (11, 4)]'
p1891
(lp1892
F110.25
aI155
aF0.7112903225806452
asS'[(13, 1), (14, 1)]'
p1893
(lp1894
F103.25
aI130
aF0.7942307692307692
asS'[(9, 4), (7, 3)]'
p1895
(lp1896
F114.5
aI143
aF0.8006993006993007
asS'[(2, 4), (8, 4)]'
p1897
(lp1898
F100.0
aI134
aF0.746268656716418
asS'[(2, 3), (13, 1)]'
p1899
(lp1900
F104.5
aI141
aF0.7411347517730497
asS'[(14, 4), (4, 2)]'
p1901
(lp1902
F116.75
aI150
aF0.7783333333333333
asS'[(4, 1), (8, 1)]'
p1903
(lp1904
F125.5
aI157
aF0.7993630573248408
asS'[(2, 4), (11, 3)]'
p1905
(lp1906
F102.25
aI135
aF0.7574074074074074
asS'[(10, 4), (11, 4)]'
p1907
(lp1908
F123.5
aI157
aF0.7866242038216561
asS'[(9, 4), (13, 4)]'
p1909
(lp1910
F131.75
aI168
aF0.7842261904761905
asS'[(5, 1), (9, 4)]'
p1911
(lp1912
F116.75
aI151
aF0.7731788079470199
asS'[(12, 3), (2, 3)]'
p1913
(lp1914
F122.0
aI160
aF0.7625
asS'[(2, 1), (4, 3)]'
p1915
(lp1916
F105.75
aI145
aF0.7293103448275862
asS'[(11, 4), (9, 1)]'
p1917
(lp1918
F122.0
aI158
aF0.7721518987341772
asS'[(2, 2), (10, 2)]'
p1919
(lp1920
F110.5
aI144
aF0.7673611111111112
asS'[(10, 1), (14, 2)]'
p1921
(lp1922
F120.25
aI161
aF0.7468944099378882
asS'[(2, 4), (12, 1)]'
p1923
(lp1924
F102.75
aI129
aF0.7965116279069767
asS'[(4, 4), (10, 3)]'
p1925
(lp1926
F98.75
aI133
aF0.7424812030075187
asS'[(11, 3), (2, 4)]'
p1927
(lp1928
F123.75
aI165
aF0.75
asS'[(14, 2), (10, 2)]'
p1929
(lp1930
F125.75
aI160
aF0.7859375
asS'[(4, 3), (9, 3)]'
p1931
(lp1932
F125.5
aI163
aF0.7699386503067485
asS'[(13, 3), (2, 4)]'
p1933
(lp1934
F108.5
aI143
aF0.7587412587412588
asS'[(7, 2), (13, 2)]'
p1935
(lp1936
F107.0
aI142
aF0.7535211267605634
asS'[(14, 2), (9, 2)]'
p1937
(lp1938
F113.5
aI145
aF0.7827586206896552
asS'[(11, 2), (7, 1)]'
p1939
(lp1940
F108.5
aI143
aF0.7587412587412588
asS'[(13, 1), (3, 4)]'
p1941
(lp1942
F119.0
aI155
aF0.7677419354838709
asS'[(14, 4), (7, 2)]'
p1943
(lp1944
F123.5
aI160
aF0.771875
asS'[(6, 2), (3, 4)]'
p1945
(lp1946
F113.75
aI149
aF0.7634228187919463
asS'[(13, 3), (14, 3)]'
p1947
(lp1948
F103.0
aI128
aF0.8046875
asS'[(3, 1), (7, 3)]'
p1949
(lp1950
F124.25
aI162
aF0.7669753086419753
asS'[(13, 4), (12, 4)]'
p1951
(lp1952
F105.75
aI138
aF0.7663043478260869
asS'[(12, 4), (8, 4)]'
p1953
(lp1954
F107.0
aI139
aF0.7697841726618705
asS'[(6, 1), (10, 4)]'
p1955
(lp1956
F130.0
aI169
aF0.7692307692307693
asS'[(11, 2), (10, 2)]'
p1957
(lp1958
F98.5
aI131
aF0.7519083969465649
asS'[(6, 4), (8, 3)]'
p1959
(lp1960
F122.5
aI159
aF0.7704402515723271
asS'[(12, 1), (14, 1)]'
p1961
(lp1962
F119.5
aI157
aF0.7611464968152867
asS'[(6, 2), (6, 1)]'
p1963
(lp1964
F147.0
aI163
aF0.901840490797546
asS'[(3, 2), (9, 4)]'
p1965
(lp1966
F104.5
aI138
aF0.7572463768115942
asS'[(7, 3), (3, 1)]'
p1967
(lp1968
F108.5
aI146
aF0.7431506849315068
asS'[(3, 1), (4, 3)]'
p1969
(lp1970
F132.75
aI169
aF0.7855029585798816
asS'[(5, 2), (10, 3)]'
p1971
(lp1972
F127.25
aI168
aF0.7574404761904762
asS'[(4, 1), (10, 3)]'
p1973
(lp1974
F121.75
aI163
aF0.7469325153374233
asS'[(8, 2), (8, 4)]'
p1975
(lp1976
F138.75
aI157
aF0.8837579617834395
asS'[(3, 2), (8, 4)]'
p1977
(lp1978
F122.25
aI153
aF0.7990196078431373
asS'[(14, 3), (6, 2)]'
p1979
(lp1980
F125.0
aI160
aF0.78125
asS'[(14, 2), (7, 3)]'
p1981
(lp1982
F115.75
aI153
aF0.7565359477124183
asS'[(11, 1), (13, 4)]'
p1983
(lp1984
F138.25
aI174
aF0.7945402298850575
asS'[(4, 4), (11, 4)]'
p1985
(lp1986
F127.5
aI164
aF0.7774390243902439
asS'[(12, 1), (14, 3)]'
p1987
(lp1988
F119.25
aI151
aF0.7897350993377483
asS'[(13, 4), (13, 3)]'
p1989
(lp1990
F144.0
aI159
aF0.9056603773584906
asS'[(11, 4), (6, 3)]'
p1991
(lp1992
F103.75
aI129
aF0.8042635658914729
asS'[(10, 4), (12, 1)]'
p1993
(lp1994
F113.5
aI147
aF0.7721088435374149
asS'[(9, 4), (10, 4)]'
p1995
(lp1996
F98.25
aI127
aF0.7736220472440944
asS'[(12, 3), (4, 4)]'
p1997
(lp1998
F106.5
aI138
aF0.7717391304347826
asS'[(12, 1), (11, 1)]'
p1999
(lp2000
F106.0
aI134
aF0.7910447761194029
asS'[(8, 3), (13, 2)]'
p2001
(lp2002
F108.25
aI143
aF0.756993006993007
asS'[(2, 1), (12, 3)]'
p2003
(lp2004
F110.75
aI145
aF0.7637931034482759
asS'[(12, 4), (4, 1)]'
p2005
(lp2006
F108.25
aI139
aF0.7787769784172662
asS'[(10, 3), (8, 4)]'
p2007
(lp2008
F92.25
aI126
aF0.7321428571428571
asS'[(6, 4), (2, 2)]'
p2009
(lp2010
F122.0
aI160
aF0.7625
asS'[(6, 4), (8, 1)]'
p2011
(lp2012
F125.25
aI160
aF0.7828125
asS'[(13, 2), (14, 2)]'
p2013
(lp2014
F124.0
aI151
aF0.8211920529801324
asS'[(14, 2), (6, 4)]'
p2015
(lp2016
F110.75
aI149
aF0.7432885906040269
asS'[(8, 4), (4, 3)]'
p2017
(lp2018
F122.0
aI156
aF0.782051282051282
asS'[(12, 2), (5, 3)]'
p2019
(lp2020
F121.5
aI156
aF0.7788461538461539
asS'[(2, 2), (7, 2)]'
p2021
(lp2022
F124.5
aI162
aF0.7685185185185185
asS'[(2, 3), (3, 4)]'
p2023
(lp2024
F128.5
aI164
aF0.7835365853658537
asS'[(3, 4), (3, 3)]'
p2025
(lp2026
F134.25
aI144
aF0.9322916666666666
asS'[(13, 4), (9, 4)]'
p2027
(lp2028
F115.75
aI146
aF0.7928082191780822
asS'[(4, 4), (14, 2)]'
p2029
(lp2030
F106.5
aI143
aF0.7447552447552448
asS'[(12, 2), (10, 3)]'
p2031
(lp2032
F101.75
aI133
aF0.7650375939849624
asS'[(7, 3), (9, 1)]'
p2033
(lp2034
F130.25
aI173
aF0.7528901734104047
asS'[(6, 2), (8, 1)]'
p2035
(lp2036
F116.5
aI147
aF0.7925170068027211
asS'[(3, 2), (11, 1)]'
p2037
(lp2038
F113.5
aI148
aF0.7668918918918919
asS'[(13, 1), (3, 2)]'
p2039
(lp2040
F101.75
aI134
aF0.7593283582089553
asS'[(10, 3), (6, 4)]'
p2041
(lp2042
F126.0
aI168
aF0.75
asS'[(4, 4), (11, 2)]'
p2043
(lp2044
F118.25
aI158
aF0.7484177215189873
asS'[(7, 1), (11, 3)]'
p2045
(lp2046
F120.5
aI155
aF0.7774193548387097
asS'[(4, 2), (14, 4)]'
p2047
(lp2048
F110.5
aI145
aF0.7620689655172413
asS'[(8, 1), (4, 2)]'
p2049
(lp2050
F132.25
aI171
aF0.7733918128654971
asS'[(9, 2), (3, 3)]'
p2051
(lp2052
F111.25
aI150
aF0.7416666666666667
asS'[(12, 1), (3, 4)]'
p2053
(lp2054
F125.0
aI168
aF0.7440476190476191
asS'[(7, 2), (12, 3)]'
p2055
(lp2056
F95.5
aI129
aF0.7403100775193798
asS'[(13, 3), (6, 3)]'
p2057
(lp2058
F119.0
aI158
aF0.7531645569620253
asS'[(8, 2), (10, 3)]'
p2059
(lp2060
F133.25
aI166
aF0.802710843373494
asS'[(9, 4), (3, 3)]'
p2061
(lp2062
F115.75
aI151
aF0.7665562913907285
asS'[(9, 1), (12, 2)]'
p2063
(lp2064
F114.25
aI151
aF0.7566225165562914
asS'[(7, 4), (7, 3)]'
p2065
(lp2066
F149.0
aI165
aF0.9030303030303031
asS'[(13, 1), (13, 3)]'
p2067
(lp2068
F138.0
aI153
aF0.9019607843137255
asS'[(14, 1), (11, 1)]'
p2069
(lp2070
F97.75
aI127
aF0.7696850393700787
asS'[(5, 2), (13, 3)]'
p2071
(lp2072
F122.75
aI165
aF0.7439393939393939
asS'[(4, 2), (4, 4)]'
p2073
(lp2074
F158.25
aI177
aF0.8940677966101694
asS'[(2, 1), (7, 1)]'
p2075
(lp2076
F101.5
aI139
aF0.7302158273381295
asS'[(2, 2), (3, 2)]'
p2077
(lp2078
F118.0
aI159
aF0.7421383647798742
asS'[(4, 2), (11, 1)]'
p2079
(lp2080
F92.25
aI124
aF0.7439516129032258
asS'[(14, 4), (5, 4)]'
p2081
(lp2082
F123.0
aI158
aF0.7784810126582279
asS'[(8, 2), (13, 4)]'
p2083
(lp2084
F114.25
aI150
aF0.7616666666666667
asS'[(13, 4), (12, 1)]'
p2085
(lp2086
F100.5
aI137
aF0.7335766423357665
asS'[(2, 1), (8, 3)]'
p2087
(lp2088
F109.25
aI145
aF0.753448275862069
asS'[(3, 3), (2, 1)]'
p2089
(lp2090
F109.0
aI154
aF0.7077922077922078
asS'[(7, 4), (3, 3)]'
p2091
(lp2092
F125.5
aI168
aF0.7470238095238095
asS'[(4, 2), (11, 3)]'
p2093
(lp2094
F123.0
aI160
aF0.76875
asS'[(5, 3), (12, 4)]'
p2095
(lp2096
F134.0
aI180
aF0.7444444444444445
asS'[(7, 4), (13, 3)]'
p2097
(lp2098
F138.0
aI181
aF0.7624309392265194
asS'[(2, 4), (8, 2)]'
p2099
(lp2100
F127.5
aI163
aF0.7822085889570553
asS'[(6, 1), (11, 3)]'
p2101
(lp2102
F116.75
aI154
aF0.7581168831168831
asS'[(14, 3), (5, 3)]'
p2103
(lp2104
F124.75
aI158
aF0.7895569620253164
asS'[(9, 4), (7, 1)]'
p2105
(lp2106
F105.75
aI132
aF0.8011363636363636
asS'[(5, 1), (5, 4)]'
p2107
(lp2108
F153.75
aI168
aF0.9151785714285714
asS'[(13, 1), (6, 4)]'
p2109
(lp2110
F106.25
aI139
aF0.7643884892086331
asS'[(7, 3), (6, 4)]'
p2111
(lp2112
F120.5
aI158
aF0.7626582278481012
asS'[(3, 3), (11, 1)]'
p2113
(lp2114
F133.0
aI168
aF0.7916666666666666
asS'[(12, 4), (13, 3)]'
p2115
(lp2116
F107.0
aI142
aF0.7535211267605634
asS'[(14, 3), (6, 4)]'
p2117
(lp2118
F111.75
aI144
aF0.7760416666666666
asS'[(2, 3), (14, 3)]'
p2119
(lp2120
F103.0
aI129
aF0.7984496124031008
asS'[(8, 3), (9, 2)]'
p2121
(lp2122
F107.0
aI138
aF0.7753623188405797
asS'[(13, 1), (4, 4)]'
p2123
(lp2124
F113.0
aI149
aF0.7583892617449665
asS'[(14, 3), (5, 1)]'
p2125
(lp2126
F101.75
aI133
aF0.7650375939849624
asS'[(13, 2), (2, 3)]'
p2127
(lp2128
F114.0
aI149
aF0.7651006711409396
asS'[(6, 2), (9, 1)]'
p2129
(lp2130
F123.0
aI158
aF0.7784810126582279
asS'[(9, 4), (3, 1)]'
p2131
(lp2132
F117.0
aI155
aF0.7548387096774194
asS'[(5, 4), (9, 4)]'
p2133
(lp2134
F117.75
aI151
aF0.7798013245033113
asS'[(3, 2), (6, 2)]'
p2135
(lp2136
F114.25
aI147
aF0.7772108843537415
asS'[(11, 1), (3, 1)]'
p2137
(lp2138
F134.25
aI173
aF0.7760115606936416
asS'[(6, 3), (7, 4)]'
p2139
(lp2140
F122.0
aI150
aF0.8133333333333334
asS'[(14, 2), (6, 1)]'
p2141
(lp2142
F111.75
aI149
aF0.75
asS'[(11, 1), (3, 3)]'
p2143
(lp2144
F136.25
aI179
aF0.7611731843575419
asS'[(8, 3), (12, 3)]'
p2145
(lp2146
F115.0
aI145
aF0.7931034482758621
asS'[(6, 3), (2, 1)]'
p2147
(lp2148
F105.25
aI142
aF0.7411971830985915
asS'[(5, 3), (4, 2)]'
p2149
(lp2150
F97.25
aI125
aF0.778
asS'[(9, 1), (12, 4)]'
p2151
(lp2152
F97.0
aI122
aF0.7950819672131147
asS'[(7, 2), (2, 3)]'
p2153
(lp2154
F119.0
aI154
aF0.7727272727272727
asS'[(2, 2), (9, 4)]'
p2155
(lp2156
F123.25
aI159
aF0.7751572327044025
asS'[(12, 3), (14, 3)]'
p2157
(lp2158
F112.75
aI152
aF0.7417763157894737
asS'[(10, 2), (13, 1)]'
p2159
(lp2160
F109.0
aI145
aF0.7517241379310344
asS'[(9, 4), (4, 2)]'
p2161
(lp2162
F117.25
aI151
aF0.7764900662251656
asS'[(7, 2), (11, 1)]'
p2163
(lp2164
F122.25
aI159
aF0.7688679245283019
asS'[(10, 4), (2, 4)]'
p2165
(lp2166
F112.25
aI147
aF0.7636054421768708
asS'[(7, 1), (9, 1)]'
p2167
(lp2168
F131.0
aI171
aF0.7660818713450293
asS'[(6, 4), (14, 3)]'
p2169
(lp2170
F98.0
aI136
aF0.7205882352941176
asS'[(9, 3), (2, 1)]'
p2171
(lp2172
F129.75
aI169
aF0.7677514792899408
asS'[(14, 3), (12, 3)]'
p2173
(lp2174
F104.0
aI143
aF0.7272727272727273
asS'[(2, 4), (7, 4)]'
p2175
(lp2176
F118.0
aI152
aF0.7763157894736842
asS'[(9, 4), (8, 2)]'
p2177
(lp2178
F112.75
aI141
aF0.799645390070922
asS'[(3, 3), (3, 4)]'
p2179
(lp2180
F137.75
aI151
aF0.9122516556291391
asS'[(2, 2), (5, 2)]'
p2181
(lp2182
F103.0
aI140
aF0.7357142857142858
asS'[(7, 3), (13, 2)]'
p2183
(lp2184
F124.5
aI170
aF0.7323529411764705
asS'[(11, 4), (6, 1)]'
p2185
(lp2186
F122.75
aI169
aF0.7263313609467456
asS'[(4, 2), (7, 4)]'
p2187
(lp2188
F102.5
aI136
aF0.7536764705882353
asS'[(5, 3), (9, 3)]'
p2189
(lp2190
F100.75
aI130
aF0.775
asS'[(14, 4), (2, 4)]'
p2191
(lp2192
F141.75
aI182
aF0.7788461538461539
asS'[(11, 3), (12, 3)]'
p2193
(lp2194
F129.25
aI163
aF0.7929447852760736
asS'[(11, 4), (5, 3)]'
p2195
(lp2196
F112.75
aI155
aF0.7274193548387097
asS'[(2, 1), (12, 1)]'
p2197
(lp2198
F109.0
aI144
aF0.7569444444444444
asS'[(2, 3), (6, 3)]'
p2199
(lp2200
F108.75
aI134
aF0.8115671641791045
asS'[(9, 2), (9, 4)]'
p2201
(lp2202
F133.75
aI147
aF0.9098639455782312
asS'[(6, 3), (8, 2)]'
p2203
(lp2204
F132.5
aI166
aF0.7981927710843374
asS'[(4, 4), (5, 2)]'
p2205
(lp2206
F130.75
aI166
aF0.7876506024096386
asS'[(14, 4), (7, 1)]'
p2207
(lp2208
F113.75
aI147
aF0.7738095238095238
asS'[(12, 4), (8, 3)]'
p2209
(lp2210
F113.25
aI146
aF0.7756849315068494
asS'[(6, 3), (4, 1)]'
p2211
(lp2212
F102.75
aI132
aF0.7784090909090909
asS'[(5, 3), (7, 3)]'
p2213
(lp2214
F124.5
aI158
aF0.7879746835443038
asS'[(11, 1), (6, 2)]'
p2215
(lp2216
F116.5
aI156
aF0.7467948717948718
asS'[(14, 1), (7, 1)]'
p2217
(lp2218
F114.25
aI153
aF0.7467320261437909
asS'[(12, 4), (3, 4)]'
p2219
(lp2220
F112.0
aI142
aF0.7887323943661971
asS'[(7, 4), (8, 1)]'
p2221
(lp2222
F111.0
aI144
aF0.7708333333333334
asS'[(13, 2), (9, 2)]'
p2223
(lp2224
F113.75
aI158
aF0.7199367088607594
asS'[(5, 4), (6, 4)]'
p2225
(lp2226
F115.25
aI146
aF0.7893835616438356
asS'[(12, 4), (7, 3)]'
p2227
(lp2228
F123.0
aI163
aF0.754601226993865
asS'[(12, 2), (3, 4)]'
p2229
(lp2230
F109.25
aI149
aF0.7332214765100671
asS'[(5, 2), (11, 3)]'
p2231
(lp2232
F111.75
aI142
aF0.7869718309859155
asS'[(14, 4), (10, 2)]'
p2233
(lp2234
F111.75
aI149
aF0.75
asS'[(8, 1), (11, 1)]'
p2235
(lp2236
F124.0
aI163
aF0.7607361963190185
asS'[(12, 1), (4, 2)]'
p2237
(lp2238
F112.5
aI146
aF0.7705479452054794
asS'[(2, 3), (10, 2)]'
p2239
(lp2240
F109.0
aI143
aF0.7622377622377622
asS'[(12, 3), (10, 2)]'
p2241
(lp2242
F102.0
aI142
aF0.7183098591549296
asS'[(11, 4), (8, 3)]'
p2243
(lp2244
F104.0
aI136
aF0.7647058823529411
asS'[(6, 2), (12, 1)]'
p2245
(lp2246
F131.0
aI174
aF0.7528735632183908
asS'[(8, 2), (10, 1)]'
p2247
(lp2248
F115.25
aI148
aF0.7787162162162162
asS'[(2, 2), (2, 4)]'
p2249
(lp2250
F128.25
aI143
aF0.8968531468531469
asS'[(3, 4), (13, 1)]'
p2251
(lp2252
F124.75
aI164
aF0.760670731707317
asS'[(5, 2), (12, 2)]'
p2253
(lp2254
F103.75
aI125
aF0.83
asS'[(2, 3), (4, 4)]'
p2255
(lp2256
F116.0
aI155
aF0.7483870967741936
asS'[(9, 1), (3, 1)]'
p2257
(lp2258
F108.25
aI142
aF0.7623239436619719
asS'[(13, 4), (14, 4)]'
p2259
(lp2260
F100.5
aI128
aF0.78515625
asS'[(7, 4), (6, 3)]'
p2261
(lp2262
F110.5
aI150
aF0.7366666666666667
asS'[(7, 2), (13, 1)]'
p2263
(lp2264
F96.0
aI127
aF0.7559055118110236
asS'[(10, 1), (3, 3)]'
p2265
(lp2266
F123.25
aI169
aF0.7292899408284024
asS'[(3, 3), (6, 3)]'
p2267
(lp2268
F110.0
aI139
aF0.7913669064748201
asS'[(8, 1), (8, 2)]'
p2269
(lp2270
F146.25
aI162
aF0.9027777777777778
asS'[(6, 1), (8, 3)]'
p2271
(lp2272
F108.0
aI135
aF0.8
asS'[(9, 3), (14, 1)]'
p2273
(lp2274
F127.5
aI169
aF0.7544378698224852
asS'[(10, 2), (5, 3)]'
p2275
(lp2276
F106.0
aI147
aF0.7210884353741497
asS'[(11, 2), (4, 2)]'
p2277
(lp2278
F119.75
aI162
aF0.7391975308641975
asS'[(6, 2), (10, 4)]'
p2279
(lp2280
F105.5
aI133
aF0.793233082706767
asS'[(4, 1), (9, 3)]'
p2281
(lp2282
F116.25
aI155
aF0.75
asS'[(4, 1), (10, 4)]'
p2283
(lp2284
F118.0
aI150
aF0.7866666666666666
asS'[(3, 4), (6, 3)]'
p2285
(lp2286
F116.25
aI156
aF0.7451923076923077
asS'[(6, 2), (14, 1)]'
p2287
(lp2288
F103.75
aI140
aF0.7410714285714286
asS'[(8, 2), (11, 2)]'
p2289
(lp2290
F110.75
aI140
aF0.7910714285714285
asS'[(12, 4), (5, 3)]'
p2291
(lp2292
F115.5
aI146
aF0.791095890410959
asS'[(6, 1), (6, 3)]'
p2293
(lp2294
F136.0
aI148
aF0.918918918918919
asS'[(2, 4), (7, 1)]'
p2295
(lp2296
F120.75
aI158
aF0.7642405063291139
asS'[(10, 1), (8, 1)]'
p2297
(lp2298
F104.5
aI133
aF0.7857142857142857
asS'[(6, 2), (13, 1)]'
p2299
(lp2300
F101.0
aI140
aF0.7214285714285714
asS'[(3, 3), (7, 3)]'
p2301
(lp2302
F117.25
aI152
aF0.7713815789473685
asS'[(9, 3), (8, 2)]'
p2303
(lp2304
F117.0
aI152
aF0.7697368421052632
asS'[(8, 1), (2, 3)]'
p2305
(lp2306
F110.5
aI150
aF0.7366666666666667
asS'[(10, 2), (9, 1)]'
p2307
(lp2308
F121.25
aI157
aF0.7722929936305732
asS'[(5, 3), (7, 4)]'
p2309
(lp2310
F114.0
aI151
aF0.7549668874172185
asS'[(8, 3), (10, 1)]'
p2311
(lp2312
F130.0
aI165
aF0.7878787878787878
asS'[(12, 2), (3, 2)]'
p2313
(lp2314
F102.5
aI135
aF0.7592592592592593
asS'[(10, 1), (12, 1)]'
p2315
(lp2316
F126.75
aI164
aF0.7728658536585366
asS'[(7, 1), (8, 4)]'
p2317
(lp2318
F109.25
aI144
aF0.7586805555555556
asS'[(14, 1), (10, 3)]'
p2319
(lp2320
F126.75
aI163
aF0.7776073619631901
asS'[(11, 3), (13, 3)]'
p2321
(lp2322
F116.0
aI153
aF0.7581699346405228
asS'[(4, 2), (7, 1)]'
p2323
(lp2324
F108.5
aI141
aF0.7695035460992907
asS'[(11, 4), (6, 4)]'
p2325
(lp2326
F118.25
aI151
aF0.7831125827814569
asS'[(3, 3), (2, 3)]'
p2327
(lp2328
F122.25
aI156
aF0.7836538461538461
asS'[(6, 4), (7, 1)]'
p2329
(lp2330
F122.0
aI160
aF0.7625
asS'[(6, 3), (14, 4)]'
p2331
(lp2332
F109.5
aI147
aF0.7448979591836735
asS'[(5, 4), (6, 1)]'
p2333
(lp2334
F104.0
aI137
aF0.7591240875912408
asS'[(5, 1), (9, 3)]'
p2335
(lp2336
F114.5
aI151
aF0.7582781456953642
asS'[(9, 4), (13, 3)]'
p2337
(lp2338
F112.75
aI149
aF0.7567114093959731
asS'[(4, 1), (2, 1)]'
p2339
(lp2340
F109.5
aI145
aF0.7551724137931034
asS'[(12, 2), (6, 2)]'
p2341
(lp2342
F121.75
aI160
aF0.7609375
asS'[(5, 1), (2, 4)]'
p2343
(lp2344
F133.0
aI176
aF0.7556818181818182
asS'[(8, 1), (9, 1)]'
p2345
(lp2346
F93.25
aI122
aF0.764344262295082
asS'[(3, 4), (14, 2)]'
p2347
(lp2348
F115.75
aI150
aF0.7716666666666666
asS'[(6, 2), (3, 3)]'
p2349
(lp2350
F119.75
aI150
aF0.7983333333333333
asS'[(13, 1), (3, 1)]'
p2351
(lp2352
F114.0
aI149
aF0.7651006711409396
asS'[(5, 4), (11, 2)]'
p2353
(lp2354
F105.0
aI136
aF0.7720588235294118
asS'[(2, 3), (9, 1)]'
p2355
(lp2356
F127.5
aI164
aF0.7774390243902439
asS'[(10, 4), (3, 3)]'
p2357
(lp2358
F108.0
aI143
aF0.7552447552447552
asS'[(11, 3), (7, 2)]'
p2359
(lp2360
F105.0
aI139
aF0.7553956834532374
asS'[(13, 2), (5, 2)]'
p2361
(lp2362
F131.0
aI171
aF0.7660818713450293
asS'[(4, 4), (14, 1)]'
p2363
(lp2364
F119.75
aI158
aF0.7579113924050633
asS'[(3, 2), (10, 3)]'
p2365
(lp2366
F116.0
aI152
aF0.7631578947368421
asS'[(13, 4), (9, 3)]'
p2367
(lp2368
F105.75
aI145
aF0.7293103448275862
asS'[(9, 1), (14, 3)]'
p2369
(lp2370
F117.25
aI162
aF0.7237654320987654
asS'[(13, 2), (7, 1)]'
p2371
(lp2372
F103.5
aI135
aF0.7666666666666667
asS'[(7, 1), (11, 4)]'
p2373
(lp2374
F114.75
aI158
aF0.7262658227848101
asS'[(10, 1), (2, 1)]'
p2375
(lp2376
F110.25
aI147
aF0.75
asS'[(8, 2), (5, 3)]'
p2377
(lp2378
F99.25
aI134
aF0.7406716417910447
asS'[(9, 1), (7, 1)]'
p2379
(lp2380
F104.5
aI131
aF0.7977099236641222
asS'[(5, 2), (8, 4)]'
p2381
(lp2382
F98.75
aI129
aF0.7655038759689923
asS'[(5, 1), (12, 2)]'
p2383
(lp2384
F138.5
aI182
aF0.760989010989011
asS'[(6, 3), (7, 1)]'
p2385
(lp2386
F104.5
aI135
aF0.774074074074074
asS'[(7, 1), (4, 1)]'
p2387
(lp2388
F106.0
aI143
aF0.7412587412587412
asS'[(2, 4), (6, 3)]'
p2389
(lp2390
F101.75
aI130
aF0.7826923076923077
asS'[(4, 2), (8, 3)]'
p2391
(lp2392
F115.75
aI150
aF0.7716666666666666
asS'[(4, 4), (11, 1)]'
p2393
(lp2394
F112.75
aI151
aF0.7466887417218543
asS'[(9, 1), (2, 2)]'
p2395
(lp2396
F127.0
aI171
aF0.7426900584795322
asS'[(7, 2), (12, 4)]'
p2397
(lp2398
F107.0
aI140
aF0.7642857142857142
asS'[(9, 4), (10, 1)]'
p2399
(lp2400
F131.25
aI168
aF0.78125
asS'[(9, 2), (8, 3)]'
p2401
(lp2402
F108.0
aI143
aF0.7552447552447552
asS'[(5, 4), (13, 3)]'
p2403
(lp2404
F90.75
aI124
aF0.7318548387096774
asS'[(9, 1), (12, 1)]'
p2405
(lp2406
F125.0
aI165
aF0.7575757575757576
asS'[(13, 2), (6, 1)]'
p2407
(lp2408
F116.25
aI159
aF0.7311320754716981
asS'[(10, 2), (4, 3)]'
p2409
(lp2410
F113.0
aI143
aF0.7902097902097902
asS'[(11, 1), (10, 2)]'
p2411
(lp2412
F119.75
aI158
aF0.7579113924050633
asS'[(7, 1), (13, 2)]'
p2413
(lp2414
F122.75
aI159
aF0.7720125786163522
asS'[(10, 3), (4, 3)]'
p2415
(lp2416
F111.5
aI152
aF0.7335526315789473
asS'[(5, 1), (4, 3)]'
p2417
(lp2418
F126.75
aI164
aF0.7728658536585366
asS'[(9, 1), (6, 2)]'
p2419
(lp2420
F120.5
aI163
aF0.7392638036809815
asS'[(4, 2), (12, 2)]'
p2421
(lp2422
F133.75
aI176
aF0.7599431818181818
asS'[(11, 3), (6, 4)]'
p2423
(lp2424
F112.25
aI148
aF0.7584459459459459
asS'[(8, 2), (14, 2)]'
p2425
(lp2426
F113.75
aI142
aF0.801056338028169
asS'[(9, 4), (3, 4)]'
p2427
(lp2428
F104.0
aI136
aF0.7647058823529411
asS'[(9, 2), (12, 2)]'
p2429
(lp2430
F106.0
aI140
aF0.7571428571428571
asS'[(4, 1), (5, 2)]'
p2431
(lp2432
F100.25
aI135
aF0.7425925925925926
asS'[(3, 1), (11, 2)]'
p2433
(lp2434
F123.75
aI171
aF0.7236842105263158
asS'[(8, 2), (2, 2)]'
p2435
(lp2436
F112.0
aI141
aF0.7943262411347518
asS'[(4, 1), (13, 2)]'
p2437
(lp2438
F111.0
aI144
aF0.7708333333333334
asS'[(5, 3), (3, 4)]'
p2439
(lp2440
F124.5
aI163
aF0.7638036809815951
asS'[(2, 3), (3, 2)]'
p2441
(lp2442
F107.0
aI139
aF0.7697841726618705
asS'[(3, 2), (6, 4)]'
p2443
(lp2444
F130.5
aI172
aF0.7587209302325582
asS'[(10, 3), (12, 4)]'
p2445
(lp2446
F109.75
aI140
aF0.7839285714285714
asS'[(2, 3), (14, 4)]'
p2447
(lp2448
F131.5
aI177
aF0.7429378531073446
asS'[(3, 2), (4, 3)]'
p2449
(lp2450
F108.5
aI151
aF0.7185430463576159
asS'[(10, 3), (7, 3)]'
p2451
(lp2452
F110.0
aI149
aF0.738255033557047
asS'[(2, 2), (9, 1)]'
p2453
(lp2454
F115.25
aI150
aF0.7683333333333333
asS'[(9, 3), (9, 2)]'
p2455
(lp2456
F153.25
aI170
aF0.9014705882352941
asS'[(10, 4), (14, 2)]'
p2457
(lp2458
F127.25
aI173
aF0.7355491329479769
asS'[(11, 3), (12, 4)]'
p2459
(lp2460
F119.75
aI159
aF0.7531446540880503
asS'[(5, 2), (2, 3)]'
p2461
(lp2462
F85.0
aI111
aF0.7657657657657657
asS'[(7, 3), (14, 3)]'
p2463
(lp2464
F115.25
aI147
aF0.7840136054421769
asS'[(7, 1), (4, 2)]'
p2465
(lp2466
F132.25
aI170
aF0.7779411764705882
asS'[(8, 2), (7, 3)]'
p2467
(lp2468
F110.25
aI147
aF0.75
asS'[(12, 2), (7, 3)]'
p2469
(lp2470
F119.0
aI154
aF0.7727272727272727
asS'[(8, 3), (12, 4)]'
p2471
(lp2472
F102.75
aI136
aF0.7555147058823529
asS'[(9, 4), (3, 2)]'
p2473
(lp2474
F118.5
aI151
aF0.7847682119205298
asS'[(9, 2), (12, 4)]'
p2475
(lp2476
F108.0
aI141
aF0.7659574468085106
asS'[(13, 2), (2, 4)]'
p2477
(lp2478
F107.0
aI142
aF0.7535211267605634
asS'[(5, 3), (2, 3)]'
p2479
(lp2480
F132.75
aI175
aF0.7585714285714286
asS'[(11, 1), (9, 1)]'
p2481
(lp2482
F120.5
aI147
aF0.8197278911564626
asS'[(9, 2), (5, 2)]'
p2483
(lp2484
F125.0
aI159
aF0.7861635220125787
asS'[(4, 1), (11, 3)]'
p2485
(lp2486
F116.25
aI149
aF0.7802013422818792
asS'[(10, 4), (2, 3)]'
p2487
(lp2488
F109.0
aI138
aF0.7898550724637681
asS'[(14, 2), (5, 2)]'
p2489
(lp2490
F99.75
aI129
aF0.7732558139534884
asS'[(2, 1), (5, 2)]'
p2491
(lp2492
F109.5
aI147
aF0.7448979591836735
asS'[(12, 2), (12, 3)]'
p2493
(lp2494
F146.0
aI162
aF0.9012345679012346
asS'[(10, 4), (8, 2)]'
p2495
(lp2496
F102.5
aI132
aF0.7765151515151515
asS'[(6, 1), (11, 1)]'
p2497
(lp2498
F121.25
aI154
aF0.7873376623376623
asS'[(9, 2), (13, 2)]'
p2499
(lp2500
F118.0
aI148
aF0.7972972972972973
asS'[(10, 4), (12, 2)]'
p2501
(lp2502
F110.0
aI144
aF0.7638888888888888
asS'[(14, 1), (3, 3)]'
p2503
(lp2504
F110.25
aI146
aF0.7551369863013698
asS'[(9, 3), (2, 2)]'
p2505
(lp2506
F115.25
aI152
aF0.7582236842105263
asS'[(10, 3), (10, 1)]'
p2507
(lp2508
F120.5
aI130
aF0.926923076923077
asS'[(13, 1), (6, 1)]'
p2509
(lp2510
F123.75
aI169
aF0.7322485207100592
asS'[(4, 4), (2, 3)]'
p2511
(lp2512
F120.5
aI168
aF0.7172619047619048
asS'[(10, 4), (4, 2)]'
p2513
(lp2514
F113.5
aI149
aF0.761744966442953
asS'[(12, 2), (4, 1)]'
p2515
(lp2516
F120.25
aI151
aF0.7963576158940397
asS'[(4, 4), (7, 1)]'
p2517
(lp2518
F122.5
aI158
aF0.7753164556962026
asS'[(14, 3), (2, 3)]'
p2519
(lp2520
F124.25
aI159
aF0.7814465408805031
asS'[(2, 2), (6, 3)]'
p2521
(lp2522
F116.75
aI155
aF0.7532258064516129
asS'[(7, 2), (11, 4)]'
p2523
(lp2524
F112.75
aI154
aF0.7321428571428571
asS'[(9, 2), (7, 4)]'
p2525
(lp2526
F100.75
aI136
aF0.7408088235294118
asS'[(8, 2), (2, 4)]'
p2527
(lp2528
F112.0
aI151
aF0.7417218543046358
asS'[(6, 1), (2, 4)]'
p2529
(lp2530
F107.75
aI146
aF0.738013698630137
asS'[(2, 4), (13, 3)]'
p2531
(lp2532
F118.75
aI155
aF0.7661290322580645
asS'[(4, 4), (13, 1)]'
p2533
(lp2534
F92.25
aI126
aF0.7321428571428571
asS'[(3, 4), (2, 1)]'
p2535
(lp2536
F118.0
aI163
aF0.7239263803680982
asS'[(4, 3), (14, 2)]'
p2537
(lp2538
F115.75
aI158
aF0.7325949367088608
asS'[(5, 3), (11, 3)]'
p2539
(lp2540
F120.75
aI155
aF0.7790322580645161
asS'[(11, 4), (6, 2)]'
p2541
(lp2542
F129.0
aI167
aF0.7724550898203593
asS'[(8, 2), (6, 4)]'
p2543
(lp2544
F123.0
aI154
aF0.7987012987012987
asS'[(4, 4), (6, 3)]'
p2545
(lp2546
F109.75
aI142
aF0.772887323943662
asS'[(12, 3), (9, 3)]'
p2547
(lp2548
F103.5
aI133
aF0.7781954887218046
asS'[(4, 3), (10, 1)]'
p2549
(lp2550
F104.25
aI140
aF0.7446428571428572
asS'[(6, 3), (8, 4)]'
p2551
(lp2552
F107.0
aI142
aF0.7535211267605634
asS'[(10, 2), (5, 4)]'
p2553
(lp2554
F121.5
aI161
aF0.7546583850931677
asS'[(6, 3), (8, 1)]'
p2555
(lp2556
F116.25
aI150
aF0.775
asS'[(10, 1), (11, 1)]'
p2557
(lp2558
F119.75
aI153
aF0.7826797385620915
asS'[(4, 2), (13, 3)]'
p2559
(lp2560
F113.0
aI156
aF0.7243589743589743
asS'[(11, 2), (4, 1)]'
p2561
(lp2562
F129.75
aI168
aF0.7723214285714286
asS'[(8, 2), (7, 4)]'
p2563
(lp2564
F132.75
aI174
aF0.7629310344827587
asS'[(2, 1), (14, 1)]'
p2565
(lp2566
F119.25
aI157
aF0.7595541401273885
asS'[(9, 2), (2, 1)]'
p2567
(lp2568
F117.0
aI152
aF0.7697368421052632
asS'[(11, 3), (11, 4)]'
p2569
(lp2570
F140.75
aI159
aF0.8852201257861635
asS'[(6, 1), (3, 3)]'
p2571
(lp2572
F94.0
aI124
aF0.7580645161290323
asS'[(10, 1), (6, 3)]'
p2573
(lp2574
F114.75
aI149
aF0.7701342281879194
asS'[(3, 2), (4, 2)]'
p2575
(lp2576
F112.75
aI145
aF0.7775862068965518
asS'[(5, 3), (14, 4)]'
p2577
(lp2578
F118.25
aI152
aF0.7779605263157895
asS'[(14, 3), (2, 1)]'
p2579
(lp2580
F100.5
aI139
aF0.7230215827338129
asS'[(2, 2), (6, 1)]'
p2581
(lp2582
F126.75
aI165
aF0.7681818181818182
asS'[(10, 1), (13, 4)]'
p2583
(lp2584
F119.0
aI152
aF0.7828947368421053
asS'[(7, 1), (10, 3)]'
p2585
(lp2586
F110.75
aI145
aF0.7637931034482759
asS'[(2, 2), (5, 3)]'
p2587
(lp2588
F95.75
aI131
aF0.7309160305343512
asS'[(8, 3), (2, 4)]'
p2589
(lp2590
F104.75
aI141
aF0.7429078014184397
asS'[(5, 3), (3, 1)]'
p2591
(lp2592
F106.25
aI139
aF0.7643884892086331
asS'[(5, 3), (11, 1)]'
p2593
(lp2594
F100.75
aI138
aF0.730072463768116
asS'[(10, 1), (2, 4)]'
p2595
(lp2596
F115.0
aI151
aF0.7615894039735099
asS'[(14, 2), (14, 3)]'
p2597
(lp2598
F147.75
aI168
aF0.8794642857142857
asS'[(8, 1), (3, 1)]'
p2599
(lp2600
F117.5
aI152
aF0.7730263157894737
asS'[(5, 4), (10, 3)]'
p2601
(lp2602
F134.25
aI174
aF0.771551724137931
asS'[(7, 1), (5, 1)]'
p2603
(lp2604
F117.0
aI149
aF0.785234899328859
asS'[(7, 1), (3, 2)]'
p2605
(lp2606
F122.5
aI163
aF0.7515337423312883
asS'[(9, 3), (7, 1)]'
p2607
(lp2608
F122.75
aI154
aF0.797077922077922
asS'[(9, 4), (14, 3)]'
p2609
(lp2610
F106.75
aI143
aF0.7465034965034965
asS'[(4, 4), (13, 4)]'
p2611
(lp2612
F113.0
aI151
aF0.7483443708609272
asS'[(9, 1), (10, 2)]'
p2613
(lp2614
F117.75
aI152
aF0.774671052631579
asS'[(13, 3), (3, 2)]'
p2615
(lp2616
F119.25
aI158
aF0.754746835443038
asS'[(6, 1), (14, 3)]'
p2617
(lp2618
F111.0
aI150
aF0.74
asS'[(4, 2), (10, 1)]'
p2619
(lp2620
F127.75
aI164
aF0.7789634146341463
asS'[(8, 1), (13, 4)]'
p2621
(lp2622
F93.0
aI122
aF0.7622950819672131
asS'[(4, 2), (8, 1)]'
p2623
(lp2624
F98.75
aI133
aF0.7424812030075187
asS'[(13, 1), (9, 1)]'
p2625
(lp2626
F115.0
aI149
aF0.7718120805369127
asS'[(14, 4), (4, 3)]'
p2627
(lp2628
F105.75
aI142
aF0.7447183098591549
asS'[(4, 1), (9, 4)]'
p2629
(lp2630
F120.5
aI159
aF0.7578616352201258
asS'[(6, 1), (9, 3)]'
p2631
(lp2632
F106.25
aI134
aF0.792910447761194
asS'[(14, 3), (6, 1)]'
p2633
(lp2634
F92.5
aI125
aF0.74
asS'[(2, 2), (2, 1)]'
p2635
(lp2636
F112.75
aI124
aF0.9092741935483871
asS'[(12, 4), (5, 4)]'
p2637
(lp2638
F106.0
aI136
aF0.7794117647058824
asS'[(8, 1), (3, 3)]'
p2639
(lp2640
F102.5
aI128
aF0.80078125
asS'[(13, 3), (12, 3)]'
p2641
(lp2642
F121.75
aI157
aF0.7754777070063694
asS'[(3, 3), (14, 4)]'
p2643
(lp2644
F101.25
aI134
aF0.7555970149253731
asS'[(13, 3), (3, 4)]'
p2645
(lp2646
F104.5
aI140
aF0.7464285714285714
asS'[(6, 2), (14, 2)]'
p2647
(lp2648
F113.5
aI149
aF0.761744966442953
asS'[(3, 2), (7, 3)]'
p2649
(lp2650
F122.25
aI159
aF0.7688679245283019
asS'[(7, 1), (2, 3)]'
p2651
(lp2652
F104.75
aI140
aF0.7482142857142857
asS'[(5, 1), (14, 4)]'
p2653
(lp2654
F109.25
aI145
aF0.753448275862069
asS'[(14, 3), (11, 4)]'
p2655
(lp2656
F126.5
aI163
aF0.7760736196319018
asS'[(7, 2), (10, 2)]'
p2657
(lp2658
F123.25
aI159
aF0.7751572327044025
asS'[(2, 4), (4, 2)]'
p2659
(lp2660
F115.75
aI152
aF0.7615131578947368
asS'[(13, 4), (3, 3)]'
p2661
(lp2662
F115.25
aI157
aF0.7340764331210191
asS'[(2, 4), (12, 3)]'
p2663
(lp2664
F111.5
aI148
aF0.7533783783783784
asS'[(4, 1), (3, 1)]'
p2665
(lp2666
F133.25
aI170
aF0.7838235294117647
asS'[(4, 2), (6, 3)]'
p2667
(lp2668
F103.25
aI134
aF0.7705223880597015
asS'[(6, 1), (2, 1)]'
p2669
(lp2670
F113.75
aI149
aF0.7634228187919463
asS'[(13, 4), (3, 4)]'
p2671
(lp2672
F99.25
aI133
aF0.7462406015037594
asS'[(10, 3), (14, 2)]'
p2673
(lp2674
F100.5
aI129
aF0.7790697674418605
asS'[(2, 1), (4, 4)]'
p2675
(lp2676
F116.75
aI158
aF0.7389240506329114
asS'[(4, 1), (12, 3)]'
p2677
(lp2678
F111.5
aI146
aF0.7636986301369864
asS'[(6, 3), (14, 2)]'
p2679
(lp2680
F108.25
aI150
aF0.7216666666666667
asS'[(2, 2), (14, 3)]'
p2681
(lp2682
F105.75
aI139
aF0.7607913669064749
asS'[(7, 3), (5, 3)]'
p2683
(lp2684
F114.0
aI144
aF0.7916666666666666
asS'[(2, 3), (10, 1)]'
p2685
(lp2686
F111.75
aI142
aF0.7869718309859155
asS'[(9, 1), (11, 1)]'
p2687
(lp2688
F127.25
aI162
aF0.7854938271604939
asS'[(13, 2), (2, 2)]'
p2689
(lp2690
F123.75
aI153
aF0.8088235294117647
asS'[(10, 4), (6, 2)]'
p2691
(lp2692
F123.0
aI161
aF0.7639751552795031
asS'[(3, 1), (13, 1)]'
p2693
(lp2694
F115.25
aI151
aF0.7632450331125827
asS'[(4, 1), (7, 1)]'
p2695
(lp2696
F110.75
aI143
aF0.7744755244755245
asS'[(12, 2), (6, 1)]'
p2697
(lp2698
F111.25
aI141
aF0.7890070921985816
asS'[(10, 1), (10, 4)]'
p2699
(lp2700
F147.25
aI164
aF0.8978658536585366
asS'[(13, 1), (7, 1)]'
p2701
(lp2702
F106.0
aI136
aF0.7794117647058824
asS'[(4, 3), (5, 1)]'
p2703
(lp2704
F111.75
aI151
aF0.7400662251655629
asS'[(8, 1), (14, 4)]'
p2705
(lp2706
F127.0
aI161
aF0.7888198757763976
asS'[(5, 1), (10, 3)]'
p2707
(lp2708
F104.75
aI139
aF0.7535971223021583
asS'[(8, 2), (14, 3)]'
p2709
(lp2710
F115.0
aI146
aF0.7876712328767124
asS'[(13, 4), (6, 2)]'
p2711
(lp2712
F130.0
aI168
aF0.7738095238095238
asS'[(11, 1), (7, 1)]'
p2713
(lp2714
F106.25
aI141
aF0.7535460992907801
asS'[(3, 1), (12, 3)]'
p2715
(lp2716
F115.5
aI155
aF0.7451612903225806
asS'[(12, 4), (11, 4)]'
p2717
(lp2718
F119.25
aI145
aF0.8224137931034483
asS'[(5, 2), (8, 3)]'
p2719
(lp2720
F112.0
aI148
aF0.7567567567567568
asS'[(6, 1), (10, 3)]'
p2721
(lp2722
F104.5
aI139
aF0.7517985611510791
asS'[(7, 2), (3, 4)]'
p2723
(lp2724
F116.5
aI151
aF0.7715231788079471
asS'[(11, 4), (12, 1)]'
p2725
(lp2726
F100.5
aI133
aF0.7556390977443609
asS'[(10, 3), (5, 2)]'
p2727
(lp2728
F122.0
aI172
aF0.7093023255813954
asS'[(8, 2), (9, 2)]'
p2729
(lp2730
F109.0
aI138
aF0.7898550724637681
asS'[(5, 2), (2, 4)]'
p2731
(lp2732
F121.25
aI161
aF0.7531055900621118
asS'[(11, 3), (14, 3)]'
p2733
(lp2734
F124.75
aI159
aF0.7845911949685535
asS'[(11, 1), (12, 1)]'
p2735
(lp2736
F141.25
aI174
aF0.8117816091954023
asS'[(12, 4), (2, 4)]'
p2737
(lp2738
F116.0
aI154
aF0.7532467532467533
asS'[(9, 1), (11, 3)]'
p2739
(lp2740
F135.5
aI175
aF0.7742857142857142
asS'[(6, 2), (3, 1)]'
p2741
(lp2742
F92.75
aI121
aF0.7665289256198347
asS'[(4, 1), (6, 1)]'
p2743
(lp2744
F103.0
aI141
aF0.7304964539007093
asS'[(3, 1), (12, 1)]'
p2745
(lp2746
F113.0
aI148
aF0.7635135135135135
asS'[(2, 2), (10, 4)]'
p2747
(lp2748
F125.0
aI166
aF0.7530120481927711
asS'[(5, 1), (7, 2)]'
p2749
(lp2750
F116.5
aI143
aF0.8146853146853147
asS'[(6, 4), (13, 3)]'
p2751
(lp2752
F114.0
aI158
aF0.7215189873417721
asS'[(7, 3), (11, 2)]'
p2753
(lp2754
F98.75
aI134
aF0.7369402985074627
asS'[(13, 2), (14, 4)]'
p2755
(lp2756
F112.0
aI155
aF0.7225806451612903
asS'[(13, 4), (6, 4)]'
p2757
(lp2758
F122.5
aI163
aF0.7515337423312883
asS'[(4, 2), (8, 4)]'
p2759
(lp2760
F109.5
aI150
aF0.73
asS'[(9, 1), (8, 1)]'
p2761
(lp2762
F127.25
aI166
aF0.766566265060241
asS'[(13, 1), (9, 4)]'
p2763
(lp2764
F131.75
aI179
aF0.7360335195530726
asS'[(10, 4), (6, 4)]'
p2765
(lp2766
F122.5
aI165
aF0.7424242424242424
asS'[(5, 1), (4, 4)]'
p2767
(lp2768
F104.25
aI137
aF0.7609489051094891
asS'[(8, 3), (6, 1)]'
p2769
(lp2770
F113.5
aI147
aF0.7721088435374149
asS'[(7, 1), (13, 3)]'
p2771
(lp2772
F108.0
aI141
aF0.7659574468085106
asS'[(12, 1), (8, 1)]'
p2773
(lp2774
F111.0
aI144
aF0.7708333333333334
asS'[(4, 4), (6, 1)]'
p2775
(lp2776
F135.5
aI173
aF0.7832369942196532
asS'[(11, 4), (13, 2)]'
p2777
(lp2778
F128.0
aI171
aF0.7485380116959064
asS'[(12, 1), (8, 4)]'
p2779
(lp2780
F110.75
aI149
aF0.7432885906040269
asS'[(9, 3), (4, 1)]'
p2781
(lp2782
F107.75
aI140
aF0.7696428571428572
asS'[(4, 4), (5, 3)]'
p2783
(lp2784
F93.25
aI122
aF0.764344262295082
asS'[(2, 1), (14, 3)]'
p2785
(lp2786
F106.25
aI142
aF0.7482394366197183
asS'[(5, 3), (5, 4)]'
p2787
(lp2788
F135.75
aI151
aF0.8990066225165563
asS'[(10, 1), (7, 3)]'
p2789
(lp2790
F119.75
aI151
aF0.793046357615894
asS'[(5, 3), (3, 3)]'
p2791
(lp2792
F129.25
aI164
aF0.788109756097561
asS'[(11, 3), (2, 1)]'
p2793
(lp2794
F116.5
aI159
aF0.7327044025157232
asS'[(8, 1), (7, 3)]'
p2795
(lp2796
F102.5
aI130
aF0.7884615384615384
asS'[(8, 4), (8, 1)]'
p2797
(lp2798
F146.0
aI162
aF0.9012345679012346
asS'[(12, 4), (6, 2)]'
p2799
(lp2800
F100.0
aI135
aF0.7407407407407407
asS'[(13, 4), (7, 4)]'
p2801
(lp2802
F108.25
aI142
aF0.7623239436619719
asS'[(5, 3), (6, 1)]'
p2803
(lp2804
F124.0
aI166
aF0.7469879518072289
asS'[(12, 2), (13, 3)]'
p2805
(lp2806
F104.75
aI135
aF0.7759259259259259
asS'[(9, 3), (10, 2)]'
p2807
(lp2808
F110.0
aI140
aF0.7857142857142857
asS'[(2, 2), (8, 3)]'
p2809
(lp2810
F113.25
aI154
aF0.7353896103896104
asS'[(4, 3), (4, 1)]'
p2811
(lp2812
F122.0
aI136
aF0.8970588235294118
asS'[(14, 1), (13, 1)]'
p2813
(lp2814
F120.0
aI152
aF0.7894736842105263
asS'[(13, 1), (7, 4)]'
p2815
(lp2816
F103.75
aI140
aF0.7410714285714286
asS'[(3, 2), (8, 2)]'
p2817
(lp2818
F119.75
aI154
aF0.7775974025974026
asS'[(5, 2), (10, 4)]'
p2819
(lp2820
F124.75
aI160
aF0.7796875
asS'[(7, 2), (13, 3)]'
p2821
(lp2822
F118.0
aI157
aF0.7515923566878981
asS'[(12, 1), (12, 2)]'
p2823
(lp2824
F129.0
aI141
aF0.9148936170212766
asS'[(10, 2), (3, 3)]'
p2825
(lp2826
F121.25
aI163
aF0.7438650306748467
asS'[(10, 2), (7, 2)]'
p2827
(lp2828
F126.75
aI174
aF0.728448275862069
asS'[(7, 3), (4, 2)]'
p2829
(lp2830
F119.0
aI148
aF0.8040540540540541
asS'[(5, 4), (7, 3)]'
p2831
(lp2832
F110.75
aI139
aF0.7967625899280576
asS'[(3, 4), (4, 2)]'
p2833
(lp2834
F115.5
aI151
aF0.7649006622516556
asS'[(8, 1), (6, 3)]'
p2835
(lp2836
F126.75
aI158
aF0.8022151898734177
asS'[(14, 2), (5, 3)]'
p2837
(lp2838
F112.0
aI151
aF0.7417218543046358
asS'[(8, 3), (13, 4)]'
p2839
(lp2840
F129.5
aI165
aF0.7848484848484848
asS'[(5, 1), (8, 4)]'
p2841
(lp2842
F124.75
aI158
aF0.7895569620253164
asS'[(9, 4), (12, 4)]'
p2843
(lp2844
F114.0
aI145
aF0.7862068965517242
asS'[(12, 2), (7, 4)]'
p2845
(lp2846
F114.0
aI146
aF0.7808219178082192
asS'[(10, 2), (10, 1)]'
p2847
(lp2848
F157.75
aI173
aF0.911849710982659
asS'[(12, 4), (4, 3)]'
p2849
(lp2850
F98.25
aI133
aF0.7387218045112782
asS'[(11, 1), (9, 2)]'
p2851
(lp2852
F102.5
aI133
aF0.7706766917293233
asS'[(14, 4), (8, 2)]'
p2853
(lp2854
F97.75
aI138
aF0.7083333333333334
asS'[(2, 1), (8, 1)]'
p2855
(lp2856
F113.0
aI145
aF0.7793103448275862
asS'[(12, 2), (2, 4)]'
p2857
(lp2858
F108.75
aI153
aF0.7107843137254902
asS'[(4, 3), (2, 1)]'
p2859
(lp2860
F126.25
aI167
aF0.7559880239520959
asS'[(12, 1), (5, 3)]'
p2861
(lp2862
F107.5
aI144
aF0.7465277777777778
asS'[(14, 4), (11, 3)]'
p2863
(lp2864
F115.5
aI151
aF0.7649006622516556
asS'[(8, 4), (11, 1)]'
p2865
(lp2866
F105.5
aI137
aF0.7700729927007299
asS'[(8, 3), (8, 1)]'
p2867
(lp2868
F137.75
aI154
aF0.8944805194805194
asS'[(3, 4), (8, 4)]'
p2869
(lp2870
F123.0
aI165
aF0.7454545454545455
asS'[(6, 1), (4, 4)]'
p2871
(lp2872
F119.25
aI154
aF0.7743506493506493
asS'[(6, 1), (2, 3)]'
p2873
(lp2874
F102.75
aI139
aF0.7392086330935251
asS'[(8, 3), (4, 4)]'
p2875
(lp2876
F113.5
aI146
aF0.7773972602739726
asS'[(7, 3), (9, 3)]'
p2877
(lp2878
F124.5
aI160
aF0.778125
asS'[(12, 4), (9, 4)]'
p2879
(lp2880
F105.25
aI140
aF0.7517857142857143
asS'[(6, 3), (6, 2)]'
p2881
(lp2882
F131.0
aI146
aF0.8972602739726028
asS'[(6, 1), (7, 1)]'
p2883
(lp2884
F101.75
aI129
aF0.7887596899224806
asS'[(6, 2), (7, 1)]'
p2885
(lp2886
F111.0
aI142
aF0.7816901408450704
asS'[(10, 3), (10, 2)]'
p2887
(lp2888
F134.0
aI147
aF0.9115646258503401
asS'[(2, 2), (6, 4)]'
p2889
(lp2890
F110.5
aI143
aF0.7727272727272727
asS'[(14, 3), (2, 4)]'
p2891
(lp2892
F110.0
aI149
aF0.738255033557047
asS'[(8, 4), (9, 1)]'
p2893
(lp2894
F126.5
aI159
aF0.7955974842767296
asS'[(4, 1), (3, 3)]'
p2895
(lp2896
F119.75
aI151
aF0.793046357615894
asS'[(6, 3), (11, 1)]'
p2897
(lp2898
F118.5
aI154
aF0.7694805194805194
asS'[(4, 2), (10, 4)]'
p2899
(lp2900
F126.5
aI163
aF0.7760736196319018
asS'[(12, 3), (5, 2)]'
p2901
(lp2902
F107.5
aI139
aF0.7733812949640287
asS'[(10, 4), (11, 2)]'
p2903
(lp2904
F121.5
aI156
aF0.7788461538461539
asS'[(14, 4), (9, 2)]'
p2905
(lp2906
F126.75
aI166
aF0.7635542168674698
asS'[(4, 4), (6, 4)]'
p2907
(lp2908
F113.25
aI147
aF0.7704081632653061
asS'[(12, 1), (3, 3)]'
p2909
(lp2910
F103.75
aI137
aF0.7572992700729927
asS'[(2, 3), (12, 2)]'
p2911
(lp2912
F102.75
aI136
aF0.7555147058823529
asS'[(6, 4), (4, 1)]'
p2913
(lp2914
F109.25
aI145
aF0.753448275862069
asS'[(4, 2), (13, 4)]'
p2915
(lp2916
F128.75
aI168
aF0.7663690476190477
asS'[(5, 1), (8, 2)]'
p2917
(lp2918
F102.25
aI134
aF0.7630597014925373
asS'[(9, 4), (12, 2)]'
p2919
(lp2920
F122.0
aI165
aF0.7393939393939394
asS'[(7, 2), (14, 3)]'
p2921
(lp2922
F124.5
aI157
aF0.7929936305732485
asS'[(3, 1), (8, 3)]'
p2923
(lp2924
F115.0
aI150
aF0.7666666666666667
asS'[(6, 4), (9, 1)]'
p2925
(lp2926
F125.5
aI162
aF0.7746913580246914
asS'[(6, 4), (14, 1)]'
p2927
(lp2928
F119.75
aI156
aF0.7676282051282052
asS'[(2, 2), (6, 2)]'
p2929
(lp2930
F102.5
aI125
aF0.82
asS'[(14, 3), (2, 2)]'
p2931
(lp2932
F114.0
aI152
aF0.75
asS'[(14, 3), (12, 1)]'
p2933
(lp2934
F114.0
aI151
aF0.7549668874172185
asS'[(6, 2), (4, 1)]'
p2935
(lp2936
F110.75
aI148
aF0.7483108108108109
asS'[(10, 4), (5, 3)]'
p2937
(lp2938
F109.25
aI146
aF0.7482876712328768
asS'[(7, 1), (9, 4)]'
p2939
(lp2940
F111.25
aI138
aF0.8061594202898551
asS'[(12, 2), (12, 4)]'
p2941
(lp2942
F128.5
aI145
aF0.8862068965517241
asS'[(5, 4), (4, 3)]'
p2943
(lp2944
F97.25
aI131
aF0.7423664122137404
asS'[(7, 3), (7, 2)]'
p2945
(lp2946
F143.25
aI158
aF0.9066455696202531
asS'[(5, 4), (8, 4)]'
p2947
(lp2948
F105.25
aI141
aF0.7464539007092199
asS'[(3, 3), (10, 3)]'
p2949
(lp2950
F96.5
aI127
aF0.7598425196850394
asS'[(14, 2), (5, 1)]'
p2951
(lp2952
F119.5
aI163
aF0.7331288343558282
asS'[(7, 1), (3, 1)]'
p2953
(lp2954
F121.75
aI154
aF0.7905844155844156
asS'[(5, 2), (9, 4)]'
p2955
(lp2956
F123.25
aI160
aF0.7703125
asS'[(11, 2), (6, 2)]'
p2957
(lp2958
F126.25
aI162
aF0.779320987654321
asS'[(2, 2), (11, 3)]'
p2959
(lp2960
F121.0
aI164
aF0.7378048780487805
asS'[(12, 2), (9, 1)]'
p2961
(lp2962
F124.5
aI163
aF0.7638036809815951
asS'[(12, 2), (4, 4)]'
p2963
(lp2964
F122.25
aI156
aF0.7836538461538461
asS'[(8, 3), (4, 2)]'
p2965
(lp2966
F110.5
aI151
aF0.7317880794701986
asS'[(13, 1), (4, 2)]'
p2967
(lp2968
F119.5
aI159
aF0.7515723270440252
asS'[(12, 4), (9, 2)]'
p2969
(lp2970
F128.75
aI164
aF0.7850609756097561
asS'[(5, 1), (5, 3)]'
p2971
(lp2972
F129.75
aI146
aF0.8886986301369864
asS'[(4, 3), (5, 4)]'
p2973
(lp2974
F107.75
aI136
aF0.7922794117647058
asS'[(4, 2), (8, 2)]'
p2975
(lp2976
F121.25
aI156
aF0.7772435897435898
asS'[(13, 4), (10, 4)]'
p2977
(lp2978
F123.75
aI160
aF0.7734375
asS'[(14, 3), (10, 4)]'
p2979
(lp2980
F111.25
aI146
aF0.761986301369863
asS'[(9, 1), (5, 2)]'
p2981
(lp2982
F110.25
aI136
aF0.8106617647058824
asS'[(2, 3), (12, 4)]'
p2983
(lp2984
F114.25
aI151
aF0.7566225165562914
asS'[(14, 3), (14, 1)]'
p2985
(lp2986
F126.25
aI140
aF0.9017857142857143
asS'[(5, 1), (6, 3)]'
p2987
(lp2988
F114.75
aI151
aF0.7599337748344371
asS'[(6, 3), (5, 4)]'
p2989
(lp2990
F105.0
aI140
aF0.75
asS'[(13, 3), (11, 2)]'
p2991
(lp2992
F114.75
aI150
aF0.765
asS'[(6, 4), (11, 2)]'
p2993
(lp2994
F109.75
aI143
aF0.7674825174825175
asS'[(7, 1), (2, 4)]'
p2995
(lp2996
F116.0
aI158
aF0.7341772151898734
asS'[(5, 4), (14, 1)]'
p2997
(lp2998
F106.5
aI141
aF0.7553191489361702
asS'[(9, 2), (2, 4)]'
p2999
(lp3000
F116.0
aI153
aF0.7581699346405228
asS'[(12, 2), (9, 3)]'
p3001
(lp3002
F118.5
aI159
aF0.7452830188679245
asS'[(13, 1), (6, 3)]'
p3003
(lp3004
F113.5
aI147
aF0.7721088435374149
asS'[(3, 1), (9, 1)]'
p3005
(lp3006
F104.25
aI133
aF0.7838345864661654
asS'[(7, 2), (6, 2)]'
p3007
(lp3008
F114.25
aI144
aF0.7934027777777778
asS'[(8, 4), (5, 1)]'
p3009
(lp3010
F98.25
aI133
aF0.7387218045112782
asS'[(7, 1), (7, 2)]'
p3011
(lp3012
F133.5
aI149
aF0.8959731543624161
asS'[(14, 2), (14, 4)]'
p3013
(lp3014
F131.0
aI148
aF0.8851351351351351
asS'[(11, 2), (6, 4)]'
p3015
(lp3016
F128.75
aI168
aF0.7663690476190477
asS'[(6, 2), (12, 4)]'
p3017
(lp3018
F104.5
aI136
aF0.7683823529411765
asS'[(2, 1), (4, 2)]'
p3019
(lp3020
F93.75
aI124
aF0.7560483870967742
asS'[(10, 3), (14, 4)]'
p3021
(lp3022
F111.75
aI145
aF0.7706896551724138
asS'[(11, 2), (2, 1)]'
p3023
(lp3024
F140.75
aI173
aF0.8135838150289018
asS'[(10, 3), (14, 1)]'
p3025
(lp3026
F121.5
aI163
aF0.745398773006135
asS'[(13, 3), (14, 4)]'
p3027
(lp3028
F112.0
aI149
aF0.7516778523489933
asS'[(11, 1), (14, 2)]'
p3029
(lp3030
F119.75
aI158
aF0.7579113924050633
asS'[(8, 3), (10, 2)]'
p3031
(lp3032
F121.5
aI157
aF0.7738853503184714
asS'[(10, 4), (6, 1)]'
p3033
(lp3034
F123.5
aI155
aF0.7967741935483871
asS'[(5, 4), (7, 4)]'
p3035
(lp3036
F113.75
aI148
aF0.768581081081081
asS'[(6, 3), (12, 3)]'
p3037
(lp3038
F109.75
aI143
aF0.7674825174825175
asS'[(11, 4), (5, 1)]'
p3039
(lp3040
F120.25
aI154
aF0.7808441558441559
asS'[(12, 4), (11, 3)]'
p3041
(lp3042
F122.75
aI160
aF0.7671875
asS'[(6, 2), (11, 1)]'
p3043
(lp3044
F114.25
aI147
aF0.7772108843537415
asS'[(6, 4), (13, 2)]'
p3045
(lp3046
F103.25
aI140
aF0.7375
asS'[(2, 2), (10, 1)]'
p3047
(lp3048
F113.75
aI146
aF0.7791095890410958
asS'[(5, 3), (6, 2)]'
p3049
(lp3050
F105.25
aI133
aF0.7913533834586466
asS'[(3, 3), (9, 1)]'
p3051
(lp3052
F106.5
aI141
aF0.7553191489361702
asS'[(3, 3), (6, 2)]'
p3053
(lp3054
F134.0
aI178
aF0.7528089887640449
asS'[(11, 3), (2, 2)]'
p3055
(lp3056
F128.25
aI168
aF0.7633928571428571
asS'[(9, 3), (10, 1)]'
p3057
(lp3058
F96.75
aI127
aF0.7618110236220472
asS'[(4, 3), (8, 1)]'
p3059
(lp3060
F114.0
aI148
aF0.7702702702702703
asS'[(8, 4), (13, 2)]'
p3061
(lp3062
F112.0
aI146
aF0.7671232876712328
asS'[(7, 2), (3, 2)]'
p3063
(lp3064
F132.25
aI176
aF0.7514204545454546
asS'[(2, 4), (11, 2)]'
p3065
(lp3066
F100.25
aI136
aF0.7371323529411765
asS'[(14, 1), (6, 2)]'
p3067
(lp3068
F103.0
aI137
aF0.7518248175182481
asS'[(11, 4), (14, 1)]'
p3069
(lp3070
F107.75
aI139
aF0.7751798561151079
asS'[(9, 4), (7, 2)]'
p3071
(lp3072
F112.0
aI145
aF0.7724137931034483
asS'[(14, 3), (8, 1)]'
p3073
(lp3074
F117.0
aI154
aF0.7597402597402597
asS'[(2, 2), (10, 3)]'
p3075
(lp3076
F137.25
aI180
aF0.7625
asS'[(4, 3), (3, 4)]'
p3077
(lp3078
F104.0
aI142
aF0.7323943661971831
asS'[(13, 3), (4, 1)]'
p3079
(lp3080
F106.75
aI144
aF0.7413194444444444
asS'[(9, 3), (5, 2)]'
p3081
(lp3082
F108.5
aI141
aF0.7695035460992907
asS'[(14, 3), (13, 4)]'
p3083
(lp3084
F127.5
aI169
aF0.7544378698224852
asS'[(12, 2), (5, 2)]'
p3085
(lp3086
F116.75
aI154
aF0.7581168831168831
asS'[(8, 1), (12, 3)]'
p3087
(lp3088
F125.75
aI167
aF0.7529940119760479
asS'[(12, 3), (2, 2)]'
p3089
(lp3090
F106.25
aI145
aF0.7327586206896551
asS'[(5, 4), (6, 3)]'
p3091
(lp3092
F110.75
aI147
aF0.7534013605442177
asS'[(3, 4), (5, 3)]'
p3093
(lp3094
F125.5
aI158
aF0.7943037974683544
asS'[(12, 1), (13, 1)]'
p3095
(lp3096
F126.25
aI161
aF0.7841614906832298
asS'[(5, 1), (14, 3)]'
p3097
(lp3098
F118.25
aI149
aF0.7936241610738255
asS'[(4, 3), (9, 2)]'
p3099
(lp3100
F116.25
aI154
aF0.7548701298701299
asS'[(13, 4), (14, 2)]'
p3101
(lp3102
F109.25
aI145
aF0.753448275862069
asS'[(7, 4), (6, 1)]'
p3103
(lp3104
F112.75
aI152
aF0.7417763157894737
asS'[(2, 4), (4, 1)]'
p3105
(lp3106
F100.75
aI137
aF0.7354014598540146
asS'[(4, 4), (6, 2)]'
p3107
(lp3108
F101.0
aI135
aF0.7481481481481481
asS'[(3, 4), (9, 1)]'
p3109
(lp3110
F122.5
aI158
aF0.7753164556962026
asS'[(9, 3), (10, 4)]'
p3111
(lp3112
F124.75
aI158
aF0.7895569620253164
asS'[(8, 3), (6, 2)]'
p3113
(lp3114
F133.0
aI169
aF0.7869822485207101
asS'[(13, 2), (12, 3)]'
p3115
(lp3116
F129.5
aI174
aF0.7442528735632183
asS'[(4, 2), (12, 1)]'
p3117
(lp3118
F111.5
aI153
aF0.7287581699346405
asS'[(8, 3), (10, 4)]'
p3119
(lp3120
F107.25
aI140
aF0.7660714285714286
asS'[(13, 3), (14, 2)]'
p3121
(lp3122
F117.75
aI154
aF0.7646103896103896
asS'[(11, 2), (3, 3)]'
p3123
(lp3124
F131.25
aI164
aF0.8003048780487805
asS'[(2, 1), (13, 1)]'
p3125
(lp3126
F126.75
aI164
aF0.7728658536585366
asS'[(2, 3), (6, 1)]'
p3127
(lp3128
F116.0
aI143
aF0.8111888111888111
asS'[(4, 2), (13, 2)]'
p3129
(lp3130
F101.25
aI133
aF0.7612781954887218
asS'[(6, 2), (3, 2)]'
p3131
(lp3132
F123.25
aI159
aF0.7751572327044025
asS'[(6, 4), (8, 2)]'
p3133
(lp3134
F131.0
aI170
aF0.7705882352941177
asS'[(6, 1), (7, 2)]'
p3135
(lp3136
F116.75
aI152
aF0.7680921052631579
asS'[(8, 3), (14, 4)]'
p3137
(lp3138
F101.25
aI136
aF0.7444852941176471
asS'[(11, 2), (12, 1)]'
p3139
(lp3140
F113.75
aI145
aF0.7844827586206896
asS'[(3, 1), (4, 2)]'
p3141
(lp3142
F128.0
aI166
aF0.7710843373493976
asS'[(8, 4), (3, 2)]'
p3143
(lp3144
F108.5
aI148
aF0.7331081081081081
asS'[(5, 2), (12, 1)]'
p3145
(lp3146
F114.5
aI149
aF0.7684563758389261
asS'[(5, 2), (10, 2)]'
p3147
(lp3148
F114.25
aI145
aF0.7879310344827586
asS'[(6, 4), (3, 2)]'
p3149
(lp3150
F108.75
aI138
aF0.7880434782608695
asS'[(14, 1), (13, 2)]'
p3151
(lp3152
F100.75
aI131
aF0.7690839694656488
asS'[(10, 2), (2, 1)]'
p3153
(lp3154
F114.0
aI146
aF0.7808219178082192
asS'[(3, 3), (7, 1)]'
p3155
(lp3156
F101.0
aI138
aF0.7318840579710145
asS'[(6, 2), (7, 2)]'
p3157
(lp3158
F107.25
aI148
aF0.7246621621621622
asS'[(2, 1), (2, 4)]'
p3159
(lp3160
F122.5
aI138
aF0.8876811594202898
asS'[(4, 4), (8, 3)]'
p3161
(lp3162
F114.0
aI149
aF0.7651006711409396
asS'[(13, 3), (13, 1)]'
p3163
(lp3164
F128.75
aI144
aF0.8940972222222222
asS'[(14, 2), (7, 2)]'
p3165
(lp3166
F103.75
aI136
aF0.7628676470588235
asS'[(14, 1), (10, 1)]'
p3167
(lp3168
F131.5
aI173
aF0.7601156069364162
asS'[(13, 4), (13, 2)]'
p3169
(lp3170
F126.75
aI146
aF0.8681506849315068
asS'[(14, 1), (2, 1)]'
p3171
(lp3172
F115.0
aI156
aF0.7371794871794872
asS'[(12, 3), (3, 4)]'
p3173
(lp3174
F113.75
aI157
aF0.7245222929936306
asS'[(9, 2), (14, 4)]'
p3175
(lp3176
F118.5
aI154
aF0.7694805194805194
asS'[(12, 3), (12, 2)]'
p3177
(lp3178
F111.0
aI125
aF0.888
asS'[(4, 2), (11, 2)]'
p3179
(lp3180
F105.25
aI138
aF0.7626811594202898
asS'[(7, 3), (4, 1)]'
p3181
(lp3182
F95.5
aI126
aF0.7579365079365079
asS'[(10, 1), (11, 3)]'
p3183
(lp3184
F104.5
aI136
aF0.7683823529411765
asS'[(8, 3), (13, 3)]'
p3185
(lp3186
F123.75
aI163
aF0.75920245398773
asS'[(2, 1), (10, 1)]'
p3187
(lp3188
F115.25
aI142
aF0.8116197183098591
asS'[(2, 1), (12, 2)]'
p3189
(lp3190
F122.75
aI167
aF0.7350299401197605
asS'[(13, 4), (12, 3)]'
p3191
(lp3192
F115.25
aI153
aF0.7532679738562091
asS'[(10, 4), (10, 1)]'
p3193
(lp3194
F132.25
aI144
aF0.9184027777777778
asS'[(13, 1), (5, 3)]'
p3195
(lp3196
F116.75
aI151
aF0.7731788079470199
asS'[(13, 2), (14, 3)]'
p3197
(lp3198
F101.0
aI136
aF0.7426470588235294
asS'[(4, 4), (9, 4)]'
p3199
(lp3200
F113.0
aI145
aF0.7793103448275862
asS'[(5, 3), (14, 1)]'
p3201
(lp3202
F110.25
aI144
aF0.765625
asS'[(8, 4), (4, 2)]'
p3203
(lp3204
F107.0
aI143
aF0.7482517482517482
asS'[(12, 2), (10, 2)]'
p3205
(lp3206
F121.25
aI158
aF0.7674050632911392
asS'[(12, 2), (14, 3)]'
p3207
(lp3208
F108.5
aI148
aF0.7331081081081081
asS'[(4, 3), (13, 4)]'
p3209
(lp3210
F128.5
aI165
aF0.7787878787878788
asS'[(8, 4), (11, 2)]'
p3211
(lp3212
F109.25
aI142
aF0.7693661971830986
asS'[(4, 3), (2, 2)]'
p3213
(lp3214
F124.25
aI161
aF0.7717391304347826
asS'[(5, 4), (14, 3)]'
p3215
(lp3216
F119.0
aI162
aF0.7345679012345679
asS'[(4, 4), (14, 3)]'
p3217
(lp3218
F105.75
aI146
aF0.7243150684931506
asS'[(12, 3), (7, 3)]'
p3219
(lp3220
F123.5
aI158
aF0.7816455696202531
asS'[(14, 2), (7, 4)]'
p3221
(lp3222
F106.0
aI143
aF0.7412587412587412
asS'[(7, 4), (2, 1)]'
p3223
(lp3224
F111.0
aI150
aF0.74
asS'[(7, 4), (4, 2)]'
p3225
(lp3226
F114.25
aI150
aF0.7616666666666667
asS'[(14, 2), (3, 1)]'
p3227
(lp3228
F92.5
aI120
aF0.7708333333333334
asS'[(4, 2), (2, 4)]'
p3229
(lp3230
F103.5
aI140
aF0.7392857142857143
asS'[(10, 3), (6, 1)]'
p3231
(lp3232
F127.0
aI163
aF0.7791411042944786
asS'[(6, 2), (10, 1)]'
p3233
(lp3234
F96.75
aI126
aF0.7678571428571429
asS'[(12, 1), (11, 3)]'
p3235
(lp3236
F120.25
aI157
aF0.7659235668789809
asS'[(9, 1), (12, 3)]'
p3237
(lp3238
F129.75
aI171
aF0.7587719298245614
asS'[(7, 4), (7, 2)]'
p3239
(lp3240
F121.75
aI137
aF0.8886861313868614
asS'[(6, 4), (4, 2)]'
p3241
(lp3242
F104.75
aI137
aF0.7645985401459854
asS'[(9, 1), (8, 2)]'
p3243
(lp3244
F118.5
aI152
aF0.7796052631578947
asS'[(10, 2), (12, 2)]'
p3245
(lp3246
F115.25
aI146
aF0.7893835616438356
asS'[(10, 4), (14, 4)]'
p3247
(lp3248
F116.25
aI150
aF0.775
asS'[(11, 1), (8, 1)]'
p3249
(lp3250
F129.25
aI163
aF0.7929447852760736
asS'[(7, 2), (8, 4)]'
p3251
(lp3252
F109.5
aI142
aF0.7711267605633803
asS'[(10, 4), (7, 3)]'
p3253
(lp3254
F117.25
aI145
aF0.8086206896551724
asS'[(14, 1), (3, 1)]'
p3255
(lp3256
F102.75
aI137
aF0.75
asS'[(5, 3), (8, 1)]'
p3257
(lp3258
F107.5
aI147
aF0.7312925170068028
asS'[(7, 4), (3, 2)]'
p3259
(lp3260
F116.25
aI156
aF0.7451923076923077
asS'[(13, 3), (10, 3)]'
p3261
(lp3262
F121.75
aI154
aF0.7905844155844156
asS'[(13, 2), (6, 2)]'
p3263
(lp3264
F116.75
aI150
aF0.7783333333333333
asS'[(3, 1), (6, 2)]'
p3265
(lp3266
F109.5
aI140
aF0.7821428571428571
asS'[(13, 4), (10, 2)]'
p3267
(lp3268
F106.0
aI141
aF0.75177304964539
asS'[(11, 2), (11, 3)]'
p3269
(lp3270
F128.0
aI141
aF0.9078014184397163
asS'[(3, 2), (13, 2)]'
p3271
(lp3272
F111.75
aI147
aF0.7602040816326531
asS'[(6, 1), (5, 4)]'
p3273
(lp3274
F119.25
aI157
aF0.7595541401273885
asS'[(9, 2), (3, 2)]'
p3275
(lp3276
F125.25
aI162
aF0.7731481481481481
asS'[(12, 1), (10, 4)]'
p3277
(lp3278
F136.5
aI168
aF0.8125
asS'[(7, 3), (6, 1)]'
p3279
(lp3280
F107.75
aI135
aF0.7981481481481482
asS'[(12, 3), (2, 4)]'
p3281
(lp3282
F123.25
aI165
aF0.746969696969697
asS'[(5, 1), (12, 4)]'
p3283
(lp3284
F116.75
aI150
aF0.7783333333333333
asS'[(11, 4), (10, 2)]'
p3285
(lp3286
F118.25
aI152
aF0.7779605263157895
asS'[(11, 1), (3, 2)]'
p3287
(lp3288
F111.25
aI151
aF0.7367549668874173
asS'[(11, 1), (14, 1)]'
p3289
(lp3290
F130.0
aI169
aF0.7692307692307693
asS'[(7, 2), (14, 1)]'
p3291
(lp3292
F113.5
aI153
aF0.7418300653594772
asS'[(3, 3), (2, 2)]'
p3293
(lp3294
F124.25
aI158
aF0.7863924050632911
asS'[(14, 3), (9, 3)]'
p3295
(lp3296
F118.0
aI149
aF0.7919463087248322
asS'[(14, 3), (5, 4)]'
p3297
(lp3298
F126.5
aI175
aF0.7228571428571429
asS'[(7, 3), (2, 3)]'
p3299
(lp3300
F114.5
aI147
aF0.7789115646258503
asS'[(13, 4), (8, 3)]'
p3301
(lp3302
F118.25
aI159
aF0.7437106918238994
asS'[(4, 4), (9, 1)]'
p3303
(lp3304
F130.0
aI176
aF0.7386363636363636
asS'[(9, 4), (5, 1)]'
p3305
(lp3306
F132.0
aI176
aF0.75
asS'[(2, 4), (6, 2)]'
p3307
(lp3308
F122.5
aI162
aF0.7561728395061729
asS'[(11, 4), (7, 2)]'
p3309
(lp3310
F108.0
aI146
aF0.7397260273972602
asS'[(14, 3), (14, 2)]'
p3311
(lp3312
F132.75
aI146
aF0.9092465753424658
asS'[(5, 2), (6, 3)]'
p3313
(lp3314
F115.0
aI151
aF0.7615894039735099
asS'[(7, 3), (10, 3)]'
p3315
(lp3316
F130.75
aI173
aF0.7557803468208093
asS'[(7, 4), (13, 4)]'
p3317
(lp3318
F111.5
aI140
aF0.7964285714285714
asS'[(13, 3), (5, 4)]'
p3319
(lp3320
F112.25
aI148
aF0.7584459459459459
asS'[(5, 1), (13, 3)]'
p3321
(lp3322
F121.5
aI157
aF0.7738853503184714
asS'[(14, 2), (2, 3)]'
p3323
(lp3324
F109.5
aI142
aF0.7711267605633803
asS'[(8, 3), (3, 1)]'
p3325
(lp3326
F116.0
aI149
aF0.7785234899328859
asS'[(9, 4), (4, 3)]'
p3327
(lp3328
F100.75
aI137
aF0.7354014598540146
asS'[(5, 3), (2, 4)]'
p3329
(lp3330
F100.25
aI138
aF0.7264492753623188
asS'[(14, 4), (5, 1)]'
p3331
(lp3332
F128.5
aI171
aF0.7514619883040936
asS'[(8, 4), (5, 2)]'
p3333
(lp3334
F105.5
aI147
aF0.717687074829932
asS'[(6, 1), (9, 1)]'
p3335
(lp3336
F113.75
aI147
aF0.7738095238095238
asS'[(9, 3), (6, 4)]'
p3337
(lp3338
F98.5
aI126
aF0.7817460317460317
asS'[(4, 2), (3, 3)]'
p3339
(lp3340
F105.25
aI139
aF0.7571942446043165
asS'[(10, 3), (11, 4)]'
p3341
(lp3342
F106.75
aI130
aF0.8211538461538461
asS'[(6, 4), (9, 2)]'
p3343
(lp3344
F122.0
aI160
aF0.7625
asS'[(3, 2), (8, 3)]'
p3345
(lp3346
F108.25
aI146
aF0.7414383561643836
asS'[(14, 4), (13, 2)]'
p3347
(lp3348
F115.5
aI153
aF0.7549019607843137
asS'[(12, 1), (7, 2)]'
p3349
(lp3350
F107.0
aI144
aF0.7430555555555556
asS'[(5, 2), (9, 1)]'
p3351
(lp3352
F113.25
aI150
aF0.755
asS'[(11, 1), (12, 4)]'
p3353
(lp3354
F109.5
aI142
aF0.7711267605633803
asS'[(8, 4), (2, 3)]'
p3355
(lp3356
F112.5
aI148
aF0.7601351351351351
asS'[(7, 4), (10, 4)]'
p3357
(lp3358
F128.75
aI166
aF0.7756024096385542
asS'[(3, 2), (6, 3)]'
p3359
(lp3360
F102.75
aI127
aF0.8090551181102362
asS'[(10, 4), (13, 4)]'
p3361
(lp3362
F118.75
aI148
aF0.8023648648648649
asS'[(11, 4), (2, 3)]'
p3363
(lp3364
F118.0
aI158
aF0.7468354430379747
asS'[(2, 4), (6, 4)]'
p3365
(lp3366
F125.75
aI159
aF0.7908805031446541
asS'[(8, 2), (7, 2)]'
p3367
(lp3368
F116.5
aI152
aF0.7664473684210527
asS'[(6, 3), (8, 3)]'
p3369
(lp3370
F105.75
aI135
aF0.7833333333333333
asS'[(4, 3), (4, 4)]'
p3371
(lp3372
F160.75
aI178
aF0.9030898876404494
asS'[(14, 4), (5, 3)]'
p3373
(lp3374
F129.5
aI167
aF0.7754491017964071
asS'[(3, 2), (12, 3)]'
p3375
(lp3376
F109.75
aI146
aF0.7517123287671232
asS'[(2, 4), (2, 1)]'
p3377
(lp3378
F138.25
aI154
aF0.8977272727272727
asS'[(5, 4), (12, 1)]'
p3379
(lp3380
F108.25
aI147
aF0.7363945578231292
asS'[(9, 2), (9, 1)]'
p3381
(lp3382
F155.0
aI172
aF0.9011627906976745
asS'[(2, 1), (13, 2)]'
p3383
(lp3384
F107.0
aI136
aF0.7867647058823529
asS'[(12, 4), (12, 3)]'
p3385
(lp3386
F124.0
aI140
aF0.8857142857142857
asS'[(2, 1), (3, 1)]'
p3387
(lp3388
F125.0
aI165
aF0.7575757575757576
asS'[(5, 3), (8, 4)]'
p3389
(lp3390
F109.5
aI146
aF0.75
asS'[(9, 1), (4, 3)]'
p3391
(lp3392
F100.25
aI131
aF0.7652671755725191
asS'[(14, 1), (7, 4)]'
p3393
(lp3394
F100.25
aI137
aF0.7317518248175182
asS'[(12, 4), (3, 1)]'
p3395
(lp3396
F107.25
aI144
aF0.7447916666666666
asS'[(3, 3), (9, 2)]'
p3397
(lp3398
F99.0
aI132
aF0.75
asS'[(11, 4), (7, 4)]'
p3399
(lp3400
F128.25
aI159
aF0.8066037735849056
asS'[(11, 3), (8, 1)]'
p3401
(lp3402
F103.75
aI134
aF0.7742537313432836
asS'[(2, 2), (5, 1)]'
p3403
(lp3404
F107.25
aI145
aF0.7396551724137931
asS'[(7, 2), (5, 3)]'
p3405
(lp3406
F110.75
aI150
aF0.7383333333333333
asS'[(14, 1), (2, 4)]'
p3407
(lp3408
F117.5
aI150
aF0.7833333333333333
asS'[(13, 1), (10, 2)]'
p3409
(lp3410
F122.5
aI157
aF0.7802547770700637
asS'[(9, 2), (11, 2)]'
p3411
(lp3412
F129.75
aI172
aF0.7543604651162791
asS'[(4, 3), (7, 1)]'
p3413
(lp3414
F111.75
aI149
aF0.75
asS'[(6, 1), (3, 4)]'
p3415
(lp3416
F118.25
aI162
aF0.7299382716049383
asS'[(11, 4), (8, 2)]'
p3417
(lp3418
F106.25
aI142
aF0.7482394366197183
asS'[(7, 2), (6, 1)]'
p3419
(lp3420
F105.75
aI141
aF0.75
asS'[(10, 2), (13, 4)]'
p3421
(lp3422
F126.75
aI162
aF0.7824074074074074
asS'[(6, 4), (3, 4)]'
p3423
(lp3424
F109.0
aI141
aF0.7730496453900709
asS'[(12, 4), (13, 4)]'
p3425
(lp3426
F117.5
aI161
aF0.7298136645962733
asS'[(3, 3), (3, 1)]'
p3427
(lp3428
F144.75
aI162
aF0.8935185185185185
asS'[(3, 3), (5, 2)]'
p3429
(lp3430
F112.5
aI146
aF0.7705479452054794
asS'[(13, 2), (13, 3)]'
p3431
(lp3432
F131.5
aI145
aF0.906896551724138
asS'[(9, 4), (11, 3)]'
p3433
(lp3434
F106.75
aI135
aF0.7907407407407407
asS'[(5, 4), (3, 3)]'
p3435
(lp3436
F94.75
aI121
aF0.7830578512396694
asS'[(8, 2), (10, 4)]'
p3437
(lp3438
F139.5
aI175
aF0.7971428571428572
asS'[(6, 4), (2, 4)]'
p3439
(lp3440
F105.75
aI141
aF0.75
asS'[(4, 3), (12, 1)]'
p3441
(lp3442
F105.25
aI144
aF0.7309027777777778
asS'[(5, 2), (12, 4)]'
p3443
(lp3444
F99.75
aI133
aF0.75
asS'[(6, 4), (13, 1)]'
p3445
(lp3446
F119.25
aI154
aF0.7743506493506493
asS'[(3, 4), (9, 2)]'
p3447
(lp3448
F103.75
aI141
aF0.7358156028368794
asS'[(13, 3), (6, 4)]'
p3449
(lp3450
F133.5
aI181
aF0.7375690607734806
asS'[(7, 4), (5, 3)]'
p3451
(lp3452
F134.25
aI171
aF0.7850877192982456
asS'[(10, 3), (9, 1)]'
p3453
(lp3454
F104.75
aI137
aF0.7645985401459854
asS'[(13, 4), (11, 4)]'
p3455
(lp3456
F111.0
aI149
aF0.7449664429530202
asS'[(12, 1), (6, 3)]'
p3457
(lp3458
F129.0
aI162
aF0.7962962962962963
asS'[(3, 2), (2, 4)]'
p3459
(lp3460
F110.25
aI154
aF0.7159090909090909
asS'[(14, 4), (12, 3)]'
p3461
(lp3462
F115.75
aI157
aF0.7372611464968153
asS'[(8, 4), (9, 4)]'
p3463
(lp3464
F114.75
aI147
aF0.7806122448979592
asS'[(8, 4), (10, 4)]'
p3465
(lp3466
F124.25
aI158
aF0.7863924050632911
asS'[(4, 1), (10, 1)]'
p3467
(lp3468
F104.0
aI136
aF0.7647058823529411
asS'[(6, 2), (14, 4)]'
p3469
(lp3470
F107.5
aI148
aF0.7263513513513513
asS'[(6, 2), (8, 3)]'
p3471
(lp3472
F104.75
aI138
aF0.7590579710144928
asS'[(8, 4), (3, 1)]'
p3473
(lp3474
F112.25
aI146
aF0.7688356164383562
asS'[(7, 1), (8, 3)]'
p3475
(lp3476
F104.75
aI133
aF0.7875939849624061
asS'[(5, 1), (14, 2)]'
p3477
(lp3478
F110.75
aI150
aF0.7383333333333333
asS'[(5, 1), (3, 4)]'
p3479
(lp3480
F111.5
aI148
aF0.7533783783783784
asS'[(2, 1), (6, 1)]'
p3481
(lp3482
F121.5
aI155
aF0.7838709677419354
asS'[(14, 1), (7, 2)]'
p3483
(lp3484
F105.75
aI142
aF0.7447183098591549
asS'[(3, 3), (4, 3)]'
p3485
(lp3486
F110.5
aI146
aF0.7568493150684932
asS'[(2, 4), (3, 3)]'
p3487
(lp3488
F100.5
aI137
aF0.7335766423357665
asS'[(5, 4), (5, 1)]'
p3489
(lp3490
F122.75
aI134
aF0.9160447761194029
asS'[(4, 2), (14, 1)]'
p3491
(lp3492
F106.5
aI147
aF0.7244897959183674
asS'[(6, 3), (10, 3)]'
p3493
(lp3494
F109.75
aI144
aF0.7621527777777778
asS'[(5, 3), (10, 1)]'
p3495
(lp3496
F100.75
aI133
aF0.7575187969924813
asS'[(10, 1), (9, 1)]'
p3497
(lp3498
F121.5
aI159
aF0.7641509433962265
asS'[(14, 4), (8, 3)]'
p3499
(lp3500
F128.0
aI164
aF0.7804878048780488
asS'[(9, 1), (5, 3)]'
p3501
(lp3502
F112.25
aI154
aF0.7288961038961039
asS'[(6, 2), (5, 4)]'
p3503
(lp3504
F127.75
aI160
aF0.7984375
asS'[(12, 2), (6, 3)]'
p3505
(lp3506
F109.75
aI146
aF0.7517123287671232
asS'[(12, 2), (8, 4)]'
p3507
(lp3508
F107.75
aI143
aF0.7534965034965035
asS'[(13, 2), (4, 1)]'
p3509
(lp3510
F116.25
aI158
aF0.7357594936708861
asS'[(13, 4), (8, 1)]'
p3511
(lp3512
F115.25
aI154
aF0.7483766233766234
asS'[(9, 4), (4, 1)]'
p3513
(lp3514
F116.0
aI151
aF0.7682119205298014
asS'[(5, 1), (2, 1)]'
p3515
(lp3516
F118.5
aI155
aF0.7645161290322581
asS'[(8, 2), (14, 1)]'
p3517
(lp3518
F120.0
aI156
aF0.7692307692307693
asS'[(9, 2), (7, 3)]'
p3519
(lp3520
F107.75
aI138
aF0.7807971014492754
asS'[(10, 4), (3, 2)]'
p3521
(lp3522
F123.0
aI161
aF0.7639751552795031
asS'[(3, 3), (14, 2)]'
p3523
(lp3524
F110.5
aI139
aF0.7949640287769785
asS'[(13, 2), (5, 3)]'
p3525
(lp3526
F105.5
aI141
aF0.74822695035461
asS'[(3, 2), (10, 2)]'
p3527
(lp3528
F105.0
aI142
aF0.7394366197183099
asS'[(14, 2), (11, 1)]'
p3529
(lp3530
F115.0
aI148
aF0.777027027027027
asS'[(3, 1), (7, 4)]'
p3531
(lp3532
F111.0
aI149
aF0.7449664429530202
asS'[(7, 1), (11, 1)]'
p3533
(lp3534
F128.5
aI169
aF0.7603550295857988
asS'[(7, 4), (4, 1)]'
p3535
(lp3536
F112.75
aI148
aF0.7618243243243243
asS'[(7, 2), (8, 2)]'
p3537
(lp3538
F132.25
aI174
aF0.7600574712643678
asS'[(13, 2), (5, 1)]'
p3539
(lp3540
F142.0
aI182
aF0.7802197802197802
asS'[(13, 3), (13, 4)]'
p3541
(lp3542
F149.5
aI168
aF0.8898809523809523
asS'[(14, 3), (4, 2)]'
p3543
(lp3544
F113.75
aI145
aF0.7844827586206896
asS'[(12, 3), (11, 3)]'
p3545
(lp3546
F123.25
aI157
aF0.785031847133758
asS'[(4, 2), (5, 2)]'
p3547
(lp3548
F132.5
aI167
aF0.7934131736526946
asS'[(10, 4), (7, 4)]'
p3549
(lp3550
F116.0
aI147
aF0.7891156462585034
asS'[(13, 3), (6, 1)]'
p3551
(lp3552
F99.0
aI137
aF0.7226277372262774
asS'[(13, 2), (2, 1)]'
p3553
(lp3554
F104.5
aI135
aF0.774074074074074
asS'[(12, 2), (8, 2)]'
p3555
(lp3556
F127.0
aI164
aF0.774390243902439
asS'[(8, 4), (12, 3)]'
p3557
(lp3558
F111.75
aI147
aF0.7602040816326531
asS'[(12, 3), (12, 1)]'
p3559
(lp3560
F142.5
aI158
aF0.9018987341772152
asS'[(13, 4), (13, 1)]'
p3561
(lp3562
F102.0
aI112
aF0.9107142857142857
asS'[(10, 3), (4, 2)]'
p3563
(lp3564
F106.5
aI154
aF0.6915584415584416
asS'[(5, 3), (5, 2)]'
p3565
(lp3566
F147.0
aI162
aF0.9074074074074074
asS'[(4, 4), (5, 1)]'
p3567
(lp3568
F107.25
aI138
aF0.7771739130434783
asS'[(10, 1), (7, 1)]'
p3569
(lp3570
F109.25
aI140
aF0.7803571428571429
asS'[(13, 4), (7, 2)]'
p3571
(lp3572
F119.25
aI157
aF0.7595541401273885
asS'[(13, 3), (10, 4)]'
p3573
(lp3574
F110.25
aI148
aF0.7449324324324325
asS'[(12, 4), (3, 3)]'
p3575
(lp3576
F123.75
aI161
aF0.7686335403726708
asS'[(5, 2), (3, 1)]'
p3577
(lp3578
F104.5
aI138
aF0.7572463768115942
asS'[(3, 2), (14, 1)]'
p3579
(lp3580
F111.5
aI148
aF0.7533783783783784
asS'[(9, 2), (6, 1)]'
p3581
(lp3582
F132.75
aI173
aF0.7673410404624278
asS'[(5, 1), (12, 3)]'
p3583
(lp3584
F120.0
aI153
aF0.7843137254901961
asS'[(6, 1), (13, 2)]'
p3585
(lp3586
F116.5
aI154
aF0.7564935064935064
asS'[(7, 4), (13, 1)]'
p3587
(lp3588
F91.5
aI121
aF0.756198347107438
asS'[(8, 2), (9, 4)]'
p3589
(lp3590
F124.0
aI158
aF0.7848101265822784
asS'[(12, 2), (11, 3)]'
p3591
(lp3592
F103.0
aI135
aF0.762962962962963
asS'[(3, 1), (14, 2)]'
p3593
(lp3594
F121.5
aI160
aF0.759375
asS'[(7, 3), (11, 3)]'
p3595
(lp3596
F126.5
aI160
aF0.790625
asS'[(5, 2), (7, 3)]'
p3597
(lp3598
F125.25
aI170
aF0.736764705882353
asS'[(9, 3), (12, 3)]'
p3599
(lp3600
F122.75
aI158
aF0.7768987341772152
asS'[(8, 1), (6, 1)]'
p3601
(lp3602
F136.25
aI171
aF0.7967836257309941
asS'[(10, 2), (12, 1)]'
p3603
(lp3604
F129.25
aI172
aF0.751453488372093
asS'[(8, 1), (14, 3)]'
p3605
(lp3606
F112.75
aI147
aF0.7670068027210885
asS'[(13, 3), (9, 3)]'
p3607
(lp3608
F115.5
aI149
aF0.7751677852348994
asS'[(14, 1), (5, 2)]'
p3609
(lp3610
F105.0
aI139
aF0.7553956834532374
asS'[(5, 3), (14, 3)]'
p3611
(lp3612
F116.25
aI154
aF0.7548701298701299
asS'[(7, 3), (5, 4)]'
p3613
(lp3614
F118.5
aI157
aF0.7547770700636943
asS'[(8, 2), (8, 3)]'
p3615
(lp3616
F151.75
aI167
aF0.9086826347305389
asS'[(9, 4), (14, 2)]'
p3617
(lp3618
F91.5
aI126
aF0.7261904761904762
asS'[(7, 1), (9, 2)]'
p3619
(lp3620
F107.0
aI133
aF0.8045112781954887
asS'[(10, 4), (8, 3)]'
p3621
(lp3622
F129.75
aI172
aF0.7543604651162791
asS'[(3, 1), (5, 3)]'
p3623
(lp3624
F128.25
aI170
aF0.7544117647058823
asS'[(14, 3), (12, 4)]'
p3625
(lp3626
F129.25
aI175
aF0.7385714285714285
asS'[(2, 4), (10, 3)]'
p3627
(lp3628
F108.25
aI144
aF0.7517361111111112
asS'[(14, 1), (9, 2)]'
p3629
(lp3630
F106.75
aI143
aF0.7465034965034965
asS'[(6, 1), (4, 2)]'
p3631
(lp3632
F117.25
aI150
aF0.7816666666666666
asS'[(6, 4), (6, 3)]'
p3633
(lp3634
F127.0
aI138
aF0.9202898550724637
asS'[(9, 3), (11, 3)]'
p3635
(lp3636
F118.5
aI152
aF0.7796052631578947
asS'[(8, 4), (2, 4)]'
p3637
(lp3638
F110.5
aI143
aF0.7727272727272727
asS'[(10, 3), (10, 4)]'
p3639
(lp3640
F136.75
aI150
aF0.9116666666666666
asS'[(14, 2), (12, 3)]'
p3641
(lp3642
F108.5
aI138
aF0.7862318840579711
asS'[(13, 3), (11, 3)]'
p3643
(lp3644
F122.75
aI157
aF0.7818471337579618
asS'[(5, 3), (13, 1)]'
p3645
(lp3646
F115.5
aI149
aF0.7751677852348994
asS'[(5, 3), (11, 2)]'
p3647
(lp3648
F101.0
aI128
aF0.7890625
asS'[(8, 4), (7, 2)]'
p3649
(lp3650
F132.0
aI179
aF0.7374301675977654
asS'[(5, 3), (4, 1)]'
p3651
(lp3652
F120.75
aI157
aF0.7691082802547771
asS'[(4, 1), (9, 1)]'
p3653
(lp3654
F86.0
aI109
aF0.7889908256880734
asS'[(8, 2), (4, 3)]'
p3655
(lp3656
F107.0
aI141
aF0.7588652482269503
asS'[(10, 1), (5, 2)]'
p3657
(lp3658
F113.75
aI150
aF0.7583333333333333
asS'[(10, 1), (3, 1)]'
p3659
(lp3660
F106.0
aI144
aF0.7361111111111112
asS'[(14, 3), (4, 4)]'
p3661
(lp3662
F125.25
aI164
aF0.7637195121951219
asS'[(6, 3), (4, 2)]'
p3663
(lp3664
F125.0
aI155
aF0.8064516129032258
asS'[(3, 2), (5, 3)]'
p3665
(lp3666
F123.75
aI160
aF0.7734375
asS'[(9, 2), (11, 4)]'
p3667
(lp3668
F102.5
aI128
aF0.80078125
asS'[(5, 4), (12, 2)]'
p3669
(lp3670
F134.75
aI171
aF0.7880116959064327
asS'[(4, 2), (9, 2)]'
p3671
(lp3672
F115.75
aI147
aF0.7874149659863946
asS'[(6, 1), (3, 2)]'
p3673
(lp3674
F112.0
aI146
aF0.7671232876712328
asS'[(11, 4), (8, 4)]'
p3675
(lp3676
F93.75
aI124
aF0.7560483870967742
asS'[(2, 4), (7, 2)]'
p3677
(lp3678
F114.5
aI154
aF0.7435064935064936
asS'[(3, 2), (2, 1)]'
p3679
(lp3680
F111.5
aI147
aF0.7585034013605442
asS'[(10, 1), (6, 2)]'
p3681
(lp3682
F117.0
aI151
aF0.7748344370860927
asS'[(14, 1), (8, 3)]'
p3683
(lp3684
F108.25
aI143
aF0.756993006993007
asS'[(7, 2), (9, 4)]'
p3685
(lp3686
F116.25
aI154
aF0.7548701298701299
asS'[(14, 1), (11, 3)]'
p3687
(lp3688
F131.0
aI168
aF0.7797619047619048
asS'[(11, 2), (13, 3)]'
p3689
(lp3690
F115.0
aI150
aF0.7666666666666667
asS'[(14, 3), (6, 3)]'
p3691
(lp3692
F107.75
aI138
aF0.7807971014492754
asS'[(2, 2), (2, 3)]'
p3693
(lp3694
F130.5
aI143
aF0.9125874125874126
asS'[(2, 2), (12, 4)]'
p3695
(lp3696
F103.25
aI138
aF0.7481884057971014
asS'[(5, 2), (3, 4)]'
p3697
(lp3698
F120.5
aI150
aF0.8033333333333333
asS'[(11, 1), (4, 4)]'
p3699
(lp3700
F117.25
aI153
aF0.7663398692810458
asS'[(5, 4), (4, 1)]'
p3701
(lp3702
F128.25
aI168
aF0.7633928571428571
asS'[(8, 3), (3, 2)]'
p3703
(lp3704
F95.25
aI129
aF0.7383720930232558
asS'[(10, 2), (13, 2)]'
p3705
(lp3706
F102.0
aI131
aF0.7786259541984732
asS'[(5, 4), (12, 4)]'
p3707
(lp3708
F110.0
aI148
aF0.7432432432432432
asS'[(7, 1), (3, 3)]'
p3709
(lp3710
F115.25
aI153
aF0.7532679738562091
asS'[(10, 1), (2, 2)]'
p3711
(lp3712
F94.5
aI128
aF0.73828125
asS'[(13, 2), (10, 2)]'
p3713
(lp3714
F125.0
aI155
aF0.8064516129032258
asS'[(12, 2), (4, 2)]'
p3715
(lp3716
F101.25
aI136
aF0.7444852941176471
asS'[(3, 3), (5, 1)]'
p3717
(lp3718
F137.5
aI176
aF0.78125
asS'[(13, 4), (5, 2)]'
p3719
(lp3720
F105.75
aI143
aF0.7395104895104895
asS'[(7, 4), (5, 4)]'
p3721
(lp3722
F118.75
aI155
aF0.7661290322580645
asS'[(2, 3), (8, 1)]'
p3723
(lp3724
F101.25
aI133
aF0.7612781954887218
asS'[(11, 3), (3, 3)]'
p3725
(lp3726
F120.75
aI160
aF0.7546875
asS'[(4, 3), (12, 2)]'
p3727
(lp3728
F103.75
aI143
aF0.7255244755244755
asS'[(9, 1), (5, 4)]'
p3729
(lp3730
F116.5
aI154
aF0.7564935064935064
asS'[(6, 3), (11, 3)]'
p3731
(lp3732
F123.25
aI163
aF0.7561349693251533
asS'[(12, 3), (5, 4)]'
p3733
(lp3734
F123.75
aI160
aF0.7734375
asS'[(2, 2), (11, 4)]'
p3735
(lp3736
F106.25
aI140
aF0.7589285714285714
asS'[(6, 1), (5, 1)]'
p3737
(lp3738
F114.0
aI146
aF0.7808219178082192
asS'[(8, 1), (3, 2)]'
p3739
(lp3740
F88.0
aI122
aF0.7213114754098361
asS'[(7, 3), (3, 4)]'
p3741
(lp3742
F122.25
aI162
aF0.7546296296296297
asS'[(12, 4), (5, 1)]'
p3743
(lp3744
F112.25
aI146
aF0.7688356164383562
asS'[(9, 2), (2, 2)]'
p3745
(lp3746
F104.75
aI138
aF0.7590579710144928
asS'[(7, 4), (6, 4)]'
p3747
(lp3748
F114.5
aI145
aF0.7896551724137931
asS'[(3, 4), (3, 1)]'
p3749
(lp3750
F126.5
aI142
aF0.8908450704225352
asS'[(3, 3), (4, 4)]'
p3751
(lp3752
F112.5
aI151
aF0.7450331125827815
asS'[(11, 4), (3, 3)]'
p3753
(lp3754
F107.25
aI141
aF0.7606382978723404
asS'[(4, 2), (9, 4)]'
p3755
(lp3756
F102.5
aI136
aF0.7536764705882353
asS'[(4, 4), (13, 3)]'
p3757
(lp3758
F116.5
aI155
aF0.7516129032258064
asS'[(6, 2), (14, 3)]'
p3759
(lp3760
F111.25
aI157
aF0.7085987261146497
asS'[(7, 1), (7, 4)]'
p3761
(lp3762
F132.25
aI148
aF0.893581081081081
asS'[(10, 3), (13, 4)]'
p3763
(lp3764
F130.5
aI171
aF0.7631578947368421
asS'[(12, 3), (4, 3)]'
p3765
(lp3766
F104.0
aI141
aF0.7375886524822695
asS'[(4, 2), (6, 2)]'
p3767
(lp3768
F102.75
aI134
aF0.7667910447761194
asS'[(13, 4), (5, 4)]'
p3769
(lp3770
F111.75
aI141
aF0.7925531914893617
asS'[(10, 3), (14, 3)]'
p3771
(lp3772
F120.25
aI158
aF0.7610759493670886
asS'[(7, 4), (2, 2)]'
p3773
(lp3774
F117.25
aI153
aF0.7663398692810458
asS'[(4, 3), (7, 2)]'
p3775
(lp3776
F97.75
aI136
aF0.71875
asS'[(9, 2), (11, 1)]'
p3777
(lp3778
F103.75
aI133
aF0.7800751879699248
asS'[(4, 1), (12, 2)]'
p3779
(lp3780
F125.25
aI172
aF0.7281976744186046
asS'[(4, 2), (4, 3)]'
p3781
(lp3782
F132.75
aI153
aF0.8676470588235294
asS'[(10, 1), (14, 3)]'
p3783
(lp3784
F108.5
aI151
aF0.7185430463576159
asS'[(4, 2), (10, 2)]'
p3785
(lp3786
F135.0
aI172
aF0.7848837209302325
asS'[(10, 4), (6, 3)]'
p3787
(lp3788
F104.0
aI131
aF0.7938931297709924
asS'[(14, 3), (3, 2)]'
p3789
(lp3790
F124.75
aI166
aF0.7515060240963856
asS'[(10, 4), (8, 1)]'
p3791
(lp3792
F128.75
aI169
aF0.7618343195266272
asS'[(3, 2), (10, 4)]'
p3793
(lp3794
F105.0
aI141
aF0.7446808510638298
asS'[(10, 1), (9, 2)]'
p3795
(lp3796
F129.75
aI162
aF0.8009259259259259
asS'[(13, 3), (9, 1)]'
p3797
(lp3798
F111.5
aI147
aF0.7585034013605442
asS'[(13, 3), (12, 2)]'
p3799
(lp3800
F114.0
aI152
aF0.75
asS'[(14, 1), (14, 2)]'
p3801
(lp3802
F135.25
aI151
aF0.8956953642384106
asS'[(8, 2), (13, 3)]'
p3803
(lp3804
F116.5
aI155
aF0.7516129032258064
asS'[(9, 1), (11, 2)]'
p3805
(lp3806
F106.25
aI137
aF0.7755474452554745
asS'[(12, 3), (8, 3)]'
p3807
(lp3808
F120.25
aI151
aF0.7963576158940397
asS'[(6, 1), (13, 1)]'
p3809
(lp3810
F131.25
aI166
aF0.7906626506024096
asS'[(11, 4), (14, 3)]'
p3811
(lp3812
F118.0
aI155
aF0.7612903225806451
asS'[(2, 3), (14, 2)]'
p3813
(lp3814
F104.75
aI138
aF0.7590579710144928
asS'[(9, 4), (2, 4)]'
p3815
(lp3816
F112.5
aI146
aF0.7705479452054794
asS'[(11, 3), (14, 2)]'
p3817
(lp3818
F89.75
aI123
aF0.7296747967479674
asS'[(13, 2), (11, 3)]'
p3819
(lp3820
F131.5
aI164
aF0.801829268292683
asS'[(11, 4), (14, 2)]'
p3821
(lp3822
F112.0
aI147
aF0.7619047619047619
asS'[(3, 2), (4, 1)]'
p3823
(lp3824
F113.75
aI151
aF0.7533112582781457
asS'[(4, 1), (14, 2)]'
p3825
(lp3826
F115.5
aI162
aF0.7129629629629629
asS'[(7, 1), (11, 2)]'
p3827
(lp3828
F115.0
aI155
aF0.7419354838709677
asS'[(14, 2), (11, 2)]'
p3829
(lp3830
F102.25
aI139
aF0.7356115107913669
asS'[(4, 2), (2, 1)]'
p3831
(lp3832
F108.75
aI145
aF0.75
asS'[(9, 4), (10, 3)]'
p3833
(lp3834
F132.75
aI174
aF0.7629310344827587
asS'[(4, 1), (6, 4)]'
p3835
(lp3836
F114.25
aI149
aF0.7667785234899329
asS'[(12, 4), (10, 2)]'
p3837
(lp3838
F122.75
aI164
aF0.7484756097560976
asS'[(12, 4), (7, 4)]'
p3839
(lp3840
F111.25
aI145
aF0.7672413793103449
asS'[(4, 4), (4, 1)]'
p3841
(lp3842
F107.25
aI120
aF0.89375
asS'[(6, 3), (3, 2)]'
p3843
(lp3844
F111.5
aI146
aF0.7636986301369864
asS'[(9, 1), (5, 1)]'
p3845
(lp3846
F125.25
aI163
aF0.7684049079754601
asS'[(2, 2), (14, 2)]'
p3847
(lp3848
F107.5
aI144
aF0.7465277777777778
asS'[(8, 2), (13, 1)]'
p3849
(lp3850
F114.25
aI156
aF0.7323717948717948
asS'[(9, 3), (8, 4)]'
p3851
(lp3852
F125.0
aI164
aF0.7621951219512195
asS'[(2, 1), (14, 2)]'
p3853
(lp3854
F111.25
aI156
aF0.7131410256410257
asS'[(2, 1), (6, 2)]'
p3855
(lp3856
F114.75
aI149
aF0.7701342281879194
asS'[(6, 4), (12, 4)]'
p3857
(lp3858
F121.5
aI158
aF0.7689873417721519
asS'[(8, 1), (2, 1)]'
p3859
(lp3860
F119.75
aI156
aF0.7676282051282052
asS'[(8, 2), (4, 1)]'
p3861
(lp3862
F114.75
aI147
aF0.7806122448979592
asS'[(9, 4), (9, 1)]'
p3863
(lp3864
F138.5
aI152
aF0.9111842105263158
asS'[(5, 1), (4, 1)]'
p3865
(lp3866
F141.75
aI178
aF0.7963483146067416
asS'[(8, 3), (6, 4)]'
p3867
(lp3868
F119.0
aI160
aF0.74375
asS'[(5, 3), (10, 2)]'
p3869
(lp3870
F109.75
aI141
aF0.7783687943262412
asS'[(9, 3), (9, 4)]'
p3871
(lp3872
F133.25
aI145
aF0.9189655172413793
asS'[(11, 4), (4, 1)]'
p3873
(lp3874
F115.0
aI152
aF0.756578947368421
asS'[(6, 4), (7, 4)]'
p3875
(lp3876
F126.75
aI153
aF0.8284313725490197
asS'[(13, 2), (12, 1)]'
p3877
(lp3878
F123.0
aI153
aF0.803921568627451
asS'[(6, 1), (13, 4)]'
p3879
(lp3880
F104.0
aI135
aF0.7703703703703704
asS'[(3, 4), (12, 2)]'
p3881
(lp3882
F129.25
aI172
aF0.751453488372093
asS'[(11, 2), (3, 1)]'
p3883
(lp3884
F105.75
aI141
aF0.75
asS'[(14, 3), (3, 4)]'
p3885
(lp3886
F122.0
aI160
aF0.7625
asS'[(2, 2), (7, 4)]'
p3887
(lp3888
F99.0
aI130
aF0.7615384615384615
asS'[(8, 1), (7, 2)]'
p3889
(lp3890
F113.5
aI148
aF0.7668918918918919
asS'[(10, 1), (4, 3)]'
p3891
(lp3892
F121.0
aI161
aF0.7515527950310559
asS'[(3, 3), (12, 1)]'
p3893
(lp3894
F99.75
aI135
aF0.7388888888888889
asS'[(8, 2), (9, 3)]'
p3895
(lp3896
F103.25
aI133
aF0.7763157894736842
asS'[(9, 1), (14, 4)]'
p3897
(lp3898
F120.75
aI163
aF0.74079754601227
asS'[(7, 1), (8, 1)]'
p3899
(lp3900
F126.25
aI156
aF0.8092948717948718
asS'[(8, 2), (3, 2)]'
p3901
(lp3902
F125.75
aI163
aF0.7714723926380368
asS'[(7, 4), (12, 3)]'
p3903
(lp3904
F134.25
aI173
aF0.7760115606936416
asS'[(2, 2), (8, 2)]'
p3905
(lp3906
F116.5
aI156
aF0.7467948717948718
asS'[(9, 3), (10, 3)]'
p3907
(lp3908
F105.25
aI136
aF0.7738970588235294
asS'[(10, 3), (5, 3)]'
p3909
(lp3910
F132.5
aI174
aF0.7614942528735632
asS'[(3, 4), (4, 3)]'
p3911
(lp3912
F114.5
aI147
aF0.7789115646258503
asS'[(6, 2), (7, 4)]'
p3913
(lp3914
F114.75
aI146
aF0.785958904109589
asS'[(14, 3), (11, 2)]'
p3915
(lp3916
F122.0
aI154
aF0.7922077922077922
asS'[(2, 3), (11, 1)]'
p3917
(lp3918
F115.25
aI154
aF0.7483766233766234
asS'[(6, 2), (9, 4)]'
p3919
(lp3920
F128.75
aI164
aF0.7850609756097561
asS'[(13, 2), (8, 1)]'
p3921
(lp3922
F127.0
aI163
aF0.7791411042944786
asS'[(7, 3), (12, 2)]'
p3923
(lp3924
F106.75
aI147
aF0.7261904761904762
asS'[(5, 2), (4, 2)]'
p3925
(lp3926
F132.25
aI173
aF0.7644508670520231
asS'[(3, 1), (10, 1)]'
p3927
(lp3928
F123.75
aI160
aF0.7734375
asS'[(10, 2), (3, 2)]'
p3929
(lp3930
F115.5
aI148
aF0.7804054054054054
asS'[(14, 3), (7, 4)]'
p3931
(lp3932
F106.0
aI139
aF0.762589928057554
asS'[(5, 1), (11, 3)]'
p3933
(lp3934
F99.0
aI136
aF0.7279411764705882
asS'[(12, 3), (3, 2)]'
p3935
(lp3936
F103.0
aI138
aF0.7463768115942029
asS'[(5, 4), (2, 4)]'
p3937
(lp3938
F134.5
aI173
aF0.7774566473988439
asS'[(11, 4), (4, 3)]'
p3939
(lp3940
F111.5
aI148
aF0.7533783783783784
asS'[(14, 1), (5, 1)]'
p3941
(lp3942
F118.25
aI157
aF0.7531847133757962
asS'[(6, 2), (13, 4)]'
p3943
(lp3944
F113.0
aI158
aF0.7151898734177216
asS'[(5, 3), (4, 4)]'
p3945
(lp3946
F124.25
aI158
aF0.7863924050632911
asS'[(11, 3), (10, 1)]'
p3947
(lp3948
F116.0
aI147
aF0.7891156462585034
asS'[(8, 1), (5, 3)]'
p3949
(lp3950
F114.75
aI148
aF0.7753378378378378
asS'[(8, 1), (11, 2)]'
p3951
(lp3952
F121.0
aI158
aF0.7658227848101266
asS'[(6, 3), (2, 4)]'
p3953
(lp3954
F106.75
aI143
aF0.7465034965034965
asS'[(6, 1), (6, 4)]'
p3955
(lp3956
F138.75
aI154
aF0.900974025974026
asS'[(9, 4), (11, 1)]'
p3957
(lp3958
F99.5
aI137
aF0.7262773722627737
asS'[(9, 3), (4, 2)]'
p3959
(lp3960
F125.0
aI167
aF0.7485029940119761
asS'[(6, 2), (11, 2)]'
p3961
(lp3962
F124.25
aI163
aF0.7622699386503068
asS'[(13, 3), (9, 4)]'
p3963
(lp3964
F118.25
aI154
aF0.7678571428571429
asS'[(11, 2), (9, 2)]'
p3965
(lp3966
F118.0
aI158
aF0.7468354430379747
asS'[(14, 1), (3, 4)]'
p3967
(lp3968
F127.5
aI169
aF0.7544378698224852
asS'[(8, 3), (7, 3)]'
p3969
(lp3970
F119.25
aI151
aF0.7897350993377483
asS'[(5, 1), (10, 4)]'
p3971
(lp3972
F131.75
aI169
aF0.7795857988165681
asS'[(11, 1), (5, 4)]'
p3973
(lp3974
F119.0
aI157
aF0.7579617834394905
asS'[(11, 2), (5, 1)]'
p3975
(lp3976
F107.75
aI146
aF0.738013698630137
asS'[(10, 3), (7, 4)]'
p3977
(lp3978
F122.75
aI157
aF0.7818471337579618
asS'[(9, 3), (11, 4)]'
p3979
(lp3980
F123.75
aI154
aF0.8035714285714286
asS'[(4, 3), (2, 4)]'
p3981
(lp3982
F129.0
aI175
aF0.7371428571428571
asS'[(14, 1), (9, 1)]'
p3983
(lp3984
F120.75
aI152
aF0.7944078947368421
asS'[(7, 1), (6, 3)]'
p3985
(lp3986
F106.25
aI138
aF0.769927536231884
asS'[(4, 1), (3, 2)]'
p3987
(lp3988
F107.25
aI144
aF0.7447916666666666
asS'[(9, 3), (14, 2)]'
p3989
(lp3990
F109.25
aI142
aF0.7693661971830986
asS'[(9, 4), (8, 3)]'
p3991
(lp3992
F122.75
aI164
aF0.7484756097560976
asS'[(11, 2), (12, 3)]'
p3993
(lp3994
F114.5
aI142
aF0.8063380281690141
asS'[(7, 2), (7, 3)]'
p3995
(lp3996
F151.25
aI165
aF0.9166666666666666
asS'[(12, 4), (2, 2)]'
p3997
(lp3998
F103.75
aI140
aF0.7410714285714286
asS'[(3, 4), (11, 2)]'
p3999
(lp4000
F121.25
aI161
aF0.7531055900621118
asS'[(2, 3), (8, 2)]'
p4001
(lp4002
F123.25
aI157
aF0.785031847133758
asS'[(11, 3), (6, 3)]'
p4003
(lp4004
F114.75
aI153
aF0.75
asS'[(12, 1), (11, 2)]'
p4005
(lp4006
F90.75
aI118
aF0.7690677966101694
asS'[(4, 1), (9, 2)]'
p4007
(lp4008
F107.5
aI143
aF0.7517482517482518
asS'[(10, 1), (5, 1)]'
p4009
(lp4010
F127.5
aI166
aF0.7680722891566265
asS'[(8, 2), (4, 4)]'
p4011
(lp4012
F131.75
aI176
aF0.7485795454545454
asS'[(2, 2), (12, 2)]'
p4013
(lp4014
F113.5
aI153
aF0.7418300653594772
asS'[(14, 1), (8, 4)]'
p4015
(lp4016
F119.75
aI172
aF0.6962209302325582
asS'[(10, 2), (7, 1)]'
p4017
(lp4018
F125.25
aI163
aF0.7684049079754601
asS'[(12, 1), (10, 2)]'
p4019
(lp4020
F104.5
aI139
aF0.7517985611510791
asS'[(10, 1), (12, 2)]'
p4021
(lp4022
F115.75
aI151
aF0.7665562913907285
asS'[(12, 2), (3, 1)]'
p4023
(lp4024
F105.25
aI138
aF0.7626811594202898
asS'[(4, 2), (9, 1)]'
p4025
(lp4026
F124.75
aI157
aF0.7945859872611465
asS'[(13, 2), (9, 3)]'
p4027
(lp4028
F120.75
aI160
aF0.7546875
asS'[(3, 1), (8, 2)]'
p4029
(lp4030
F120.25
aI158
aF0.7610759493670886
asS'[(7, 2), (14, 2)]'
p4031
(lp4032
F124.25
aI167
aF0.7440119760479041
asS'[(11, 3), (11, 1)]'
p4033
(lp4034
F125.0
aI141
aF0.8865248226950354
asS'[(5, 3), (2, 1)]'
p4035
(lp4036
F115.25
aI152
aF0.7582236842105263
asS'[(4, 3), (3, 3)]'
p4037
(lp4038
F119.0
aI155
aF0.7677419354838709
asS'[(12, 3), (8, 1)]'
p4039
(lp4040
F120.25
aI162
aF0.7422839506172839
asS'[(13, 3), (11, 1)]'
p4041
(lp4042
F107.0
aI141
aF0.7588652482269503
asS'[(9, 3), (7, 2)]'
p4043
(lp4044
F112.75
aI152
aF0.7417763157894737
asS'[(11, 1), (5, 3)]'
p4045
(lp4046
F107.5
aI144
aF0.7465277777777778
asS'[(13, 2), (8, 4)]'
p4047
(lp4048
F111.5
aI152
aF0.7335526315789473
asS'[(13, 4), (2, 3)]'
p4049
(lp4050
F121.5
aI159
aF0.7641509433962265
asS'[(11, 1), (4, 3)]'
p4051
(lp4052
F138.25
aI181
aF0.7638121546961326
asS'[(3, 2), (13, 4)]'
p4053
(lp4054
F111.25
aI154
aF0.7224025974025974
asS'[(9, 1), (3, 4)]'
p4055
(lp4056
F131.0
aI171
aF0.7660818713450293
asS'[(13, 2), (10, 1)]'
p4057
(lp4058
F109.25
aI146
aF0.7482876712328768
asS'[(2, 2), (11, 2)]'
p4059
(lp4060
F115.75
aI148
aF0.7820945945945946
asS'[(13, 4), (5, 1)]'
p4061
(lp4062
F122.75
aI167
aF0.7350299401197605
asS'[(8, 3), (4, 3)]'
p4063
(lp4064
F117.75
aI149
aF0.790268456375839
asS'[(11, 4), (10, 4)]'
p4065
(lp4066
F125.75
aI159
aF0.7908805031446541
asS'[(12, 4), (14, 4)]'
p4067
(lp4068
F124.5
aI157
aF0.7929936305732485
asS'[(13, 1), (9, 3)]'
p4069
(lp4070
F110.0
aI144
aF0.7638888888888888
asS'[(12, 3), (5, 3)]'
p4071
(lp4072
F117.0
aI149
aF0.785234899328859
asS'[(5, 2), (14, 3)]'
p4073
(lp4074
F114.75
aI151
aF0.7599337748344371
asS'[(6, 3), (3, 4)]'
p4075
(lp4076
F117.25
aI153
aF0.7663398692810458
asS'[(11, 3), (13, 4)]'
p4077
(lp4078
F111.0
aI145
aF0.7655172413793103
asS'[(3, 2), (3, 3)]'
p4079
(lp4080
F140.5
aI157
aF0.8949044585987261
asS'[(4, 4), (4, 3)]'
p4081
(lp4082
F133.0
aI146
aF0.910958904109589
asS'[(5, 4), (11, 3)]'
p4083
(lp4084
F118.0
aI151
aF0.7814569536423841
asS'[(11, 1), (7, 3)]'
p4085
(lp4086
F120.75
aI155
aF0.7790322580645161
asS'[(14, 3), (9, 1)]'
p4087
(lp4088
F109.5
aI148
aF0.7398648648648649
asS'[(5, 1), (6, 2)]'
p4089
(lp4090
F107.75
aI138
aF0.7807971014492754
asS'[(2, 3), (12, 1)]'
p4091
(lp4092
F121.5
aI157
aF0.7738853503184714
asS'[(14, 3), (14, 4)]'
p4093
(lp4094
F139.5
aI156
aF0.8942307692307693
asS'[(10, 2), (14, 1)]'
p4095
(lp4096
F114.25
aI146
aF0.7825342465753424
asS'[(5, 1), (10, 1)]'
p4097
(lp4098
F113.0
aI145
aF0.7793103448275862
asS'[(5, 2), (6, 1)]'
p4099
(lp4100
F114.25
aI145
aF0.7879310344827586
asS'[(7, 3), (10, 1)]'
p4101
(lp4102
F93.25
aI119
aF0.7836134453781513
asS'[(12, 4), (5, 2)]'
p4103
(lp4104
F123.75
aI159
aF0.7783018867924528
asS'[(7, 1), (7, 3)]'
p4105
(lp4106
F155.25
aI167
aF0.9296407185628742
asS'[(11, 4), (11, 3)]'
p4107
(lp4108
F152.5
aI166
aF0.9186746987951807
asS'[(4, 2), (6, 4)]'
p4109
(lp4110
F124.5
aI160
aF0.778125
asS'[(14, 2), (2, 1)]'
p4111
(lp4112
F115.25
aI145
aF0.7948275862068965
asS'[(14, 4), (9, 1)]'
p4113
(lp4114
F108.0
aI151
aF0.7152317880794702
asS'[(11, 3), (4, 3)]'
p4115
(lp4116
F114.75
aI150
aF0.765
asS'[(3, 3), (10, 4)]'
p4117
(lp4118
F109.25
aI144
aF0.7586805555555556
asS'[(12, 2), (9, 2)]'
p4119
(lp4120
F118.0
aI152
aF0.7763157894736842
asS'[(7, 1), (2, 1)]'
p4121
(lp4122
F133.75
aI169
aF0.7914201183431953
asS'[(7, 2), (6, 3)]'
p4123
(lp4124
F97.75
aI126
aF0.7757936507936508
asS'[(14, 2), (10, 3)]'
p4125
(lp4126
F118.5
aI156
aF0.7596153846153846
asS'[(10, 2), (6, 1)]'
p4127
(lp4128
F118.25
aI158
aF0.7484177215189873
asS'[(5, 1), (3, 2)]'
p4129
(lp4130
F100.25
aI131
aF0.7652671755725191
asS'[(6, 4), (9, 4)]'
p4131
(lp4132
F110.0
aI136
aF0.8088235294117647
asS'[(4, 2), (3, 1)]'
p4133
(lp4134
F110.25
aI144
aF0.765625
asS'[(6, 1), (3, 1)]'
p4135
(lp4136
F123.75
aI154
aF0.8035714285714286
asS'[(11, 2), (13, 4)]'
p4137
(lp4138
F87.5
aI119
aF0.7352941176470589
asS'[(12, 4), (7, 2)]'
p4139
(lp4140
F107.25
aI141
aF0.7606382978723404
asS'[(12, 1), (7, 4)]'
p4141
(lp4142
F119.0
aI157
aF0.7579617834394905
asS'[(3, 2), (8, 1)]'
p4143
(lp4144
F136.25
aI182
aF0.7486263736263736
asS'[(14, 4), (13, 4)]'
p4145
(lp4146
F130.25
aI170
aF0.7661764705882353
asS'[(5, 4), (13, 4)]'
p4147
(lp4148
F109.5
aI145
aF0.7551724137931034
asS'[(9, 2), (8, 4)]'
p4149
(lp4150
F119.75
aI149
aF0.8036912751677853
asS'[(6, 3), (12, 2)]'
p4151
(lp4152
F115.5
aI151
aF0.7649006622516556
asS'[(11, 2), (6, 1)]'
p4153
(lp4154
F116.75
aI150
aF0.7783333333333333
asS'[(7, 4), (8, 4)]'
p4155
(lp4156
F121.0
aI152
aF0.7960526315789473
asS'[(3, 4), (5, 4)]'
p4157
(lp4158
F99.25
aI135
aF0.7351851851851852
asS'[(14, 3), (13, 2)]'
p4159
(lp4160
F124.25
aI168
aF0.7395833333333334
asS'[(3, 1), (13, 3)]'
p4161
(lp4162
F119.75
aI161
aF0.7437888198757764
asS'[(4, 1), (7, 3)]'
p4163
(lp4164
F117.75
aI157
aF0.75
asS'[(9, 2), (5, 4)]'
p4165
(lp4166
F104.75
aI136
aF0.7702205882352942
asS'[(3, 3), (13, 4)]'
p4167
(lp4168
F117.25
aI156
aF0.7516025641025641
asS'[(2, 2), (7, 1)]'
p4169
(lp4170
F111.0
aI151
aF0.7350993377483444
asS'[(14, 3), (3, 1)]'
p4171
(lp4172
F111.0
aI146
aF0.7602739726027398
asS'[(13, 1), (8, 1)]'
p4173
(lp4174
F116.0
aI153
aF0.7581699346405228
asS'[(12, 3), (13, 3)]'
p4175
(lp4176
F98.25
aI133
aF0.7387218045112782
asS'[(10, 2), (4, 4)]'
p4177
(lp4178
F110.75
aI142
aF0.7799295774647887
asS'[(13, 3), (9, 2)]'
p4179
(lp4180
F122.75
aI158
aF0.7768987341772152
asS'[(12, 1), (4, 3)]'
p4181
(lp4182
F119.5
aI153
aF0.7810457516339869
asS'[(3, 3), (9, 4)]'
p4183
(lp4184
F111.25
aI150
aF0.7416666666666667
asS'[(4, 1), (13, 3)]'
p4185
(lp4186
F126.0
aI166
aF0.7590361445783133
asS'[(14, 2), (8, 2)]'
p4187
(lp4188
F115.75
aI148
aF0.7820945945945946
asS'[(2, 1), (13, 4)]'
p4189
(lp4190
F109.75
aI152
aF0.7220394736842105
asS'[(2, 1), (9, 4)]'
p4191
(lp4192
F105.75
aI144
aF0.734375
asS'[(11, 3), (2, 3)]'
p4193
(lp4194
F106.5
aI138
aF0.7717391304347826
asS'[(14, 2), (4, 1)]'
p4195
(lp4196
F116.75
aI160
aF0.7296875
asS'[(11, 3), (9, 4)]'
p4197
(lp4198
F122.25
aI162
aF0.7546296296296297
asS'[(12, 3), (8, 4)]'
p4199
(lp4200
F109.0
aI136
aF0.8014705882352942
asS'[(3, 4), (10, 4)]'
p4201
(lp4202
F105.5
aI138
aF0.7644927536231884
asS'[(10, 2), (11, 1)]'
p4203
(lp4204
F109.0
aI147
aF0.7414965986394558
asS'[(13, 2), (11, 4)]'
p4205
(lp4206
F110.75
aI151
aF0.7334437086092715
asS'[(11, 3), (10, 4)]'
p4207
(lp4208
F120.75
aI154
aF0.7840909090909091
asS'[(8, 3), (2, 2)]'
p4209
(lp4210
F113.25
aI154
aF0.7353896103896104
asS'[(3, 2), (7, 2)]'
p4211
(lp4212
F108.5
aI138
aF0.7862318840579711
asS'[(2, 2), (13, 4)]'
p4213
(lp4214
F110.0
aI145
aF0.7586206896551724
asS'[(11, 4), (10, 1)]'
p4215
(lp4216
F133.0
aI163
aF0.8159509202453987
asS'[(14, 4), (8, 1)]'
p4217
(lp4218
F102.0
aI135
aF0.7555555555555555
asS'[(3, 1), (9, 4)]'
p4219
(lp4220
F116.5
aI155
aF0.7516129032258064
asS'[(3, 4), (5, 2)]'
p4221
(lp4222
F108.25
aI148
aF0.731418918918919
asS'[(7, 2), (10, 1)]'
p4223
(lp4224
F104.25
aI134
aF0.7779850746268657
asS'[(7, 4), (9, 3)]'
p4225
(lp4226
F113.0
aI140
aF0.8071428571428572
asS'[(9, 4), (6, 2)]'
p4227
(lp4228
F123.75
aI162
aF0.7638888888888888
asS'[(10, 4), (5, 1)]'
p4229
(lp4230
F91.25
aI120
aF0.7604166666666666
asS'[(7, 2), (10, 4)]'
p4231
(lp4232
F108.25
aI147
aF0.7363945578231292
asS'[(7, 3), (13, 3)]'
p4233
(lp4234
F106.5
aI139
aF0.7661870503597122
asS'[(5, 2), (5, 3)]'
p4235
(lp4236
F144.75
aI161
aF0.8990683229813664
asS'[(8, 2), (4, 2)]'
p4237
(lp4238
F116.0
aI152
aF0.7631578947368421
asS'[(6, 2), (5, 2)]'
p4239
(lp4240
F105.75
aI133
aF0.7951127819548872
asS'[(13, 4), (3, 1)]'
p4241
(lp4242
F106.75
aI146
aF0.7311643835616438
asS'[(5, 1), (4, 2)]'
p4243
(lp4244
F102.0
aI137
aF0.7445255474452555
asS'[(2, 1), (9, 1)]'
p4245
(lp4246
F113.5
aI144
aF0.7881944444444444
asS'[(10, 1), (4, 4)]'
p4247
(lp4248
F138.0
aI177
aF0.7796610169491526
asS'[(2, 2), (8, 4)]'
p4249
(lp4250
F119.5
aI161
aF0.7422360248447205
asS'[(8, 3), (6, 3)]'
p4251
(lp4252
F112.5
aI139
aF0.8093525179856115
asS'[(9, 2), (5, 1)]'
p4253
(lp4254
F123.0
aI161
aF0.7639751552795031
asS'[(4, 3), (4, 2)]'
p4255
(lp4256
F150.5
aI165
aF0.9121212121212121
asS'[(7, 2), (11, 2)]'
p4257
(lp4258
F109.75
aI139
aF0.789568345323741
asS'[(6, 1), (14, 2)]'
p4259
(lp4260
F106.0
aI138
aF0.7681159420289855
asS'[(7, 1), (12, 3)]'
p4261
(lp4262
F105.0
aI135
aF0.7777777777777778
asS'[(3, 3), (8, 3)]'
p4263
(lp4264
F113.0
aI143
aF0.7902097902097902
asS'[(7, 2), (7, 4)]'
p4265
(lp4266
F160.25
aI178
aF0.9002808988764045
asS'[(8, 4), (3, 3)]'
p4267
(lp4268
F94.5
aI128
aF0.73828125
asS'[(5, 4), (2, 3)]'
p4269
(lp4270
F114.0
aI147
aF0.7755102040816326
asS'[(6, 4), (3, 3)]'
p4271
(lp4272
F120.75
aI164
aF0.7362804878048781
asS'[(2, 2), (4, 1)]'
p4273
(lp4274
F106.0
aI142
aF0.7464788732394366
asS'[(6, 2), (7, 3)]'
p4275
(lp4276
F115.75
aI154
aF0.7516233766233766
asS'[(9, 2), (10, 3)]'
p4277
(lp4278
F128.75
aI171
aF0.7529239766081871
asS'[(12, 1), (7, 1)]'
p4279
(lp4280
F118.0
aI153
aF0.7712418300653595
asS'[(4, 4), (8, 2)]'
p4281
(lp4282
F122.75
aI161
aF0.7624223602484472
asS'[(13, 1), (11, 2)]'
p4283
(lp4284
F106.75
aI143
aF0.7465034965034965
asS'[(5, 2), (4, 1)]'
p4285
(lp4286
F94.5
aI123
aF0.7682926829268293
asS'[(7, 3), (12, 1)]'
p4287
(lp4288
F110.0
aI145
aF0.7586206896551724
asS'[(8, 1), (5, 4)]'
p4289
(lp4290
F116.0
aI151
aF0.7682119205298014
asS'[(5, 4), (7, 1)]'
p4291
(lp4292
F112.25
aI145
aF0.7741379310344828
asS'[(2, 4), (3, 1)]'
p4293
(lp4294
F107.75
aI148
aF0.7280405405405406
asS'[(2, 4), (11, 1)]'
p4295
(lp4296
F116.75
aI151
aF0.7731788079470199
asS'[(10, 2), (7, 4)]'
p4297
(lp4298
F133.25
aI175
aF0.7614285714285715
asS'[(6, 4), (12, 2)]'
p4299
(lp4300
F107.5
aI140
aF0.7678571428571429
asS'[(3, 1), (10, 2)]'
p4301
(lp4302
F119.0
aI162
aF0.7345679012345679
asS'[(8, 4), (12, 1)]'
p4303
(lp4304
F119.0
aI156
aF0.7628205128205128
asS'[(9, 3), (5, 3)]'
p4305
(lp4306
F131.25
aI163
aF0.8052147239263804
asS'[(10, 1), (11, 2)]'
p4307
(lp4308
F119.25
aI152
aF0.7845394736842105
asS'[(11, 2), (9, 4)]'
p4309
(lp4310
F115.75
aI149
aF0.7768456375838926
asS'[(13, 1), (7, 3)]'
p4311
(lp4312
F115.25
aI154
aF0.7483766233766234
asS'[(13, 1), (5, 2)]'
p4313
(lp4314
F113.5
aI148
aF0.7668918918918919
asS'[(7, 4), (14, 1)]'
p4315
(lp4316
F106.5
aI141
aF0.7553191489361702
asS'[(7, 1), (10, 4)]'
p4317
(lp4318
F123.0
aI164
aF0.75
asS'[(11, 2), (9, 1)]'
p4319
(lp4320
F124.0
aI168
aF0.7380952380952381
asS'[(10, 1), (13, 3)]'
p4321
(lp4322
F111.0
aI144
aF0.7708333333333334
asS'[(12, 2), (14, 2)]'
p4323
(lp4324
F128.75
aI165
aF0.7803030303030303
asS'[(12, 4), (10, 1)]'
p4325
(lp4326
F110.25
aI143
aF0.7709790209790209
asS'[(4, 4), (12, 4)]'
p4327
(lp4328
F119.0
aI154
aF0.7727272727272727
asS'[(14, 4), (14, 1)]'
p4329
(lp4330
F152.0
aI167
aF0.9101796407185628
asS'[(13, 2), (12, 4)]'
p4331
(lp4332
F121.5
aI159
aF0.7641509433962265
asS'[(14, 4), (11, 1)]'
p4333
(lp4334
F121.75
aI164
aF0.7423780487804879
asS'[(4, 3), (2, 3)]'
p4335
(lp4336
F108.75
aI142
aF0.7658450704225352
asS'[(7, 4), (8, 2)]'
p4337
(lp4338
F121.25
aI155
aF0.782258064516129
asS'[(5, 4), (14, 2)]'
p4339
(lp4340
F113.75
aI150
aF0.7583333333333333
asS'[(9, 3), (13, 1)]'
p4341
(lp4342
F115.25
aI156
aF0.7387820512820513
asS'[(10, 4), (4, 3)]'
p4343
(lp4344
F117.25
aI150
aF0.7816666666666666
asS'[(8, 1), (11, 3)]'
p4345
(lp4346
F106.25
aI142
aF0.7482394366197183
asS'[(8, 4), (9, 2)]'
p4347
(lp4348
F116.0
aI148
aF0.7837837837837838
asS'[(8, 1), (12, 2)]'
p4349
(lp4350
F121.75
aI158
aF0.7705696202531646
asS'[(12, 1), (13, 4)]'
p4351
(lp4352
F129.25
aI159
aF0.8128930817610063
asS'[(3, 4), (2, 4)]'
p4353
(lp4354
F142.0
aI174
aF0.8160919540229885
asS'[(3, 4), (7, 3)]'
p4355
(lp4356
F110.5
aI146
aF0.7568493150684932
asS'[(4, 4), (8, 4)]'
p4357
(lp4358
F125.5
aI159
aF0.789308176100629
asS'[(5, 2), (4, 3)]'
p4359
(lp4360
F117.5
aI158
aF0.7436708860759493
asS'[(2, 2), (11, 1)]'
p4361
(lp4362
F107.0
aI138
aF0.7753623188405797
asS'[(3, 4), (11, 4)]'
p4363
(lp4364
F118.25
aI154
aF0.7678571428571429
asS'[(5, 2), (14, 4)]'
p4365
(lp4366
F109.5
aI143
aF0.7657342657342657
asS'[(2, 4), (5, 1)]'
p4367
(lp4368
F103.25
aI137
aF0.7536496350364964
asS'[(7, 4), (4, 3)]'
p4369
(lp4370
F102.75
aI138
aF0.7445652173913043
asS'[(3, 4), (11, 1)]'
p4371
(lp4372
F131.0
aI180
aF0.7277777777777777
asS'[(2, 4), (14, 1)]'
p4373
(lp4374
F119.0
aI159
aF0.7484276729559748
asS'[(14, 2), (7, 1)]'
p4375
(lp4376
F115.75
aI154
aF0.7516233766233766
asS'[(13, 3), (13, 2)]'
p4377
(lp4378
F128.5
aI142
aF0.9049295774647887
asS'[(4, 2), (5, 4)]'
p4379
(lp4380
F108.0
aI147
aF0.7346938775510204
asS'[(2, 3), (7, 1)]'
p4381
(lp4382
F128.0
aI168
aF0.7619047619047619
asS'[(6, 1), (10, 2)]'
p4383
(lp4384
F121.75
aI160
aF0.7609375
asS'[(10, 2), (2, 2)]'
p4385
(lp4386
F103.25
aI135
aF0.7648148148148148
asS'[(2, 3), (2, 1)]'
p4387
(lp4388
F136.0
aI149
aF0.912751677852349
asS'[(10, 3), (8, 3)]'
p4389
(lp4390
F112.75
aI141
aF0.799645390070922
asS'[(14, 4), (9, 4)]'
p4391
(lp4392
F135.25
aI172
aF0.7863372093023255
asS'[(3, 1), (5, 1)]'
p4393
(lp4394
F96.0
aI131
aF0.732824427480916
asS'[(14, 3), (12, 2)]'
p4395
(lp4396
F117.25
aI161
aF0.7282608695652174
asS'[(12, 2), (13, 4)]'
p4397
(lp4398
F102.0
aI130
aF0.7846153846153846
asS'[(2, 4), (10, 1)]'
p4399
(lp4400
F119.5
aI151
aF0.7913907284768212
asS'[(4, 4), (12, 2)]'
p4401
(lp4402
F94.5
aI125
aF0.756
asS'[(7, 1), (5, 2)]'
p4403
(lp4404
F101.25
aI140
aF0.7232142857142857
asS'[(11, 1), (11, 3)]'
p4405
(lp4406
F136.25
aI151
aF0.902317880794702
asS'[(2, 4), (9, 1)]'
p4407
(lp4408
F120.75
aI158
aF0.7642405063291139
asS'[(10, 4), (9, 3)]'
p4409
(lp4410
F102.25
aI134
aF0.7630597014925373
asS'[(9, 2), (13, 3)]'
p4411
(lp4412
F103.25
aI148
aF0.6976351351351351
asS'[(6, 3), (10, 2)]'
p4413
(lp4414
F112.25
aI144
aF0.7795138888888888
asS'[(3, 2), (13, 3)]'
p4415
(lp4416
F111.5
aI151
aF0.7384105960264901
asS'[(12, 3), (8, 2)]'
p4417
(lp4418
F109.5
aI143
aF0.7657342657342657
asS'[(12, 1), (13, 3)]'
p4419
(lp4420
F118.0
aI159
aF0.7421383647798742
asS'[(11, 4), (10, 3)]'
p4421
(lp4422
F116.75
aI152
aF0.7680921052631579
asS'[(8, 1), (10, 3)]'
p4423
(lp4424
F121.0
aI157
aF0.7707006369426752
asS'[(13, 4), (10, 3)]'
p4425
(lp4426
F102.75
aI140
aF0.7339285714285714
asS'[(12, 2), (10, 1)]'
p4427
(lp4428
F113.5
aI147
aF0.7721088435374149
asS'[(3, 2), (3, 4)]'
p4429
(lp4430
F165.25
aI185
aF0.8932432432432432
asS'[(8, 4), (4, 1)]'
p4431
(lp4432
F117.5
aI156
aF0.7532051282051282
asS'[(2, 4), (12, 4)]'
p4433
(lp4434
F99.25
aI133
aF0.7462406015037594
asS'[(3, 3), (10, 1)]'
p4435
(lp4436
F121.25
aI160
aF0.7578125
asS'[(9, 3), (12, 1)]'
p4437
(lp4438
F105.0
aI135
aF0.7777777777777778
asS'[(3, 1), (14, 4)]'
p4439
(lp4440
F118.0
aI159
aF0.7421383647798742
asS'[(11, 3), (5, 3)]'
p4441
(lp4442
F89.0
aI121
aF0.7355371900826446
asS'[(8, 1), (4, 1)]'
p4443
(lp4444
F121.75
aI161
aF0.7562111801242236
asS'[(14, 1), (5, 4)]'
p4445
(lp4446
F111.0
aI142
aF0.7816901408450704
asS'[(14, 4), (11, 4)]'
p4447
(lp4448
F105.75
aI141
aF0.75
asS'[(9, 1), (14, 2)]'
p4449
(lp4450
F111.0
aI143
aF0.7762237762237763
asS'[(13, 1), (13, 2)]'
p4451
(lp4452
F138.0
aI154
aF0.8961038961038961
asS'[(12, 3), (6, 3)]'
p4453
(lp4454
F118.0
aI150
aF0.7866666666666666
asS'[(8, 1), (10, 4)]'
p4455
(lp4456
F114.0
aI154
aF0.7402597402597403
asS'[(13, 4), (8, 2)]'
p4457
(lp4458
F106.0
aI146
aF0.726027397260274
asS'[(11, 4), (7, 3)]'
p4459
(lp4460
F120.5
aI152
aF0.7927631578947368
asS'[(2, 1), (7, 3)]'
p4461
(lp4462
F89.5
aI117
aF0.7649572649572649
asS'[(10, 2), (14, 2)]'
p4463
(lp4464
F125.0
aI163
aF0.7668711656441718
asS'[(12, 4), (14, 2)]'
p4465
(lp4466
F99.5
aI135
aF0.737037037037037
asS'[(11, 2), (7, 2)]'
p4467
(lp4468
F113.5
aI147
aF0.7721088435374149
asS'[(5, 1), (13, 2)]'
p4469
(lp4470
F107.75
aI141
aF0.7641843971631206
asS'[(3, 2), (9, 1)]'
p4471
(lp4472
F111.5
aI143
aF0.7797202797202797
asS'[(11, 1), (4, 1)]'
p4473
(lp4474
F126.75
aI164
aF0.7728658536585366
asS'[(14, 4), (13, 3)]'
p4475
(lp4476
F112.0
aI144
aF0.7777777777777778
asS'[(6, 4), (12, 3)]'
p4477
(lp4478
F121.25
aI156
aF0.7772435897435898
asS'[(10, 4), (14, 1)]'
p4479
(lp4480
F108.5
aI146
aF0.7431506849315068
asS'[(2, 3), (7, 4)]'
p4481
(lp4482
F105.25
aI138
aF0.7626811594202898
asS'[(12, 3), (7, 4)]'
p4483
(lp4484
F113.5
aI157
aF0.7229299363057324
asS'[(2, 1), (11, 2)]'
p4485
(lp4486
F119.0
aI162
aF0.7345679012345679
asS'[(6, 4), (9, 3)]'
p4487
(lp4488
F112.0
aI141
aF0.7943262411347518
asS'[(7, 4), (14, 3)]'
p4489
(lp4490
F118.75
aI161
aF0.7375776397515528
asS'[(2, 2), (4, 3)]'
p4491
(lp4492
F115.0
aI147
aF0.782312925170068
asS'[(10, 3), (6, 2)]'
p4493
(lp4494
F132.25
aI175
aF0.7557142857142857
asS'[(7, 4), (8, 3)]'
p4495
(lp4496
F92.75
aI124
aF0.7479838709677419
asS'[(8, 4), (7, 4)]'
p4497
(lp4498
F130.0
aI168
aF0.7738095238095238
asS'[(9, 1), (9, 2)]'
p4499
(lp4500
F147.0
aI157
aF0.9363057324840764
asS'[(11, 2), (2, 3)]'
p4501
(lp4502
F104.75
aI141
aF0.7429078014184397
asS'[(10, 3), (8, 2)]'
p4503
(lp4504
F117.75
aI153
aF0.7696078431372549
asS'[(8, 3), (11, 2)]'
p4505
(lp4506
F125.25
aI161
aF0.7779503105590062
asS'[(12, 2), (11, 1)]'
p4507
(lp4508
F129.75
aI169
aF0.7677514792899408
asS'[(11, 4), (2, 2)]'
p4509
(lp4510
F133.0
aI174
aF0.764367816091954
asS'[(12, 4), (6, 3)]'
p4511
(lp4512
F134.25
aI176
aF0.7627840909090909
asS'[(10, 3), (9, 4)]'
p4513
(lp4514
F114.5
aI149
aF0.7684563758389261
asS'[(13, 1), (13, 4)]'
p4515
(lp4516
F146.75
aI163
aF0.9003067484662577
asS'[(13, 4), (11, 1)]'
p4517
(lp4518
F113.0
aI146
aF0.773972602739726
asS'[(14, 2), (8, 4)]'
p4519
(lp4520
F123.5
aI162
aF0.7623456790123457
asS'[(10, 4), (14, 3)]'
p4521
(lp4522
F111.0
aI143
aF0.7762237762237763
asS'[(7, 2), (3, 1)]'
p4523
(lp4524
F124.25
aI162
aF0.7669753086419753
asS'[(11, 4), (9, 2)]'
p4525
(lp4526
F115.5
aI151
aF0.7649006622516556
asS'[(14, 2), (8, 1)]'
p4527
(lp4528
F106.5
aI138
aF0.7717391304347826
asS'[(7, 2), (5, 2)]'
p4529
(lp4530
F95.5
aI118
aF0.809322033898305
asS'[(2, 4), (6, 1)]'
p4531
(lp4532
F118.5
aI156
aF0.7596153846153846
asS'[(2, 1), (13, 3)]'
p4533
(lp4534
F110.0
aI146
aF0.7534246575342466
asS'[(14, 4), (12, 4)]'
p4535
(lp4536
F119.0
aI155
aF0.7677419354838709
asS'[(3, 2), (2, 3)]'
p4537
(lp4538
F105.75
aI136
aF0.7775735294117647
asS'[(6, 4), (13, 4)]'
p4539
(lp4540
F113.5
aI153
aF0.7418300653594772
asS'[(8, 4), (6, 3)]'
p4541
(lp4542
F117.0
aI149
aF0.785234899328859
asS'[(2, 4), (14, 4)]'
p4543
(lp4544
F115.75
aI147
aF0.7874149659863946
asS'[(3, 2), (2, 2)]'
p4545
(lp4546
F97.75
aI127
aF0.7696850393700787
asS'[(8, 1), (12, 4)]'
p4547
(lp4548
F108.25
aI151
aF0.7168874172185431
asS'[(7, 3), (10, 4)]'
p4549
(lp4550
F119.5
aI154
aF0.775974025974026
asS'[(5, 2), (6, 4)]'
p4551
(lp4552
F127.25
aI166
aF0.766566265060241
asS'[(3, 3), (9, 3)]'
p4553
(lp4554
F111.25
aI148
aF0.7516891891891891
asS'[(2, 4), (11, 4)]'
p4555
(lp4556
F121.5
aI164
aF0.7408536585365854
asS'[(3, 3), (13, 1)]'
p4557
(lp4558
F113.5
aI151
aF0.7516556291390728
asS'[(9, 2), (11, 3)]'
p4559
(lp4560
F125.0
aI156
aF0.8012820512820513
asS'[(7, 1), (2, 2)]'
p4561
(lp4562
F109.5
aI138
aF0.7934782608695652
asS'[(14, 2), (10, 4)]'
p4563
(lp4564
F117.25
aI156
aF0.7516025641025641
asS'[(3, 1), (9, 2)]'
p4565
(lp4566
F107.75
aI147
aF0.7329931972789115
asS'[(3, 3), (5, 3)]'
p4567
(lp4568
F137.25
aI168
aF0.8169642857142857
asS'[(12, 4), (4, 4)]'
p4569
(lp4570
F119.25
aI158
aF0.754746835443038
asS'[(13, 3), (2, 3)]'
p4571
(lp4572
F112.25
aI140
aF0.8017857142857143
asS'[(5, 4), (3, 2)]'
p4573
(lp4574
F143.25
aI189
aF0.7579365079365079
asS'[(5, 1), (9, 1)]'
p4575
(lp4576
F116.75
aI147
aF0.79421768707483
asS'[(7, 4), (12, 1)]'
p4577
(lp4578
F115.5
aI156
aF0.7403846153846154
asS'[(10, 4), (5, 2)]'
p4579
(lp4580
F124.0
aI165
aF0.7515151515151515
asS'[(11, 1), (12, 3)]'
p4581
(lp4582
F111.25
aI142
aF0.7834507042253521
asS'[(3, 4), (5, 1)]'
p4583
(lp4584
F111.25
aI147
aF0.7568027210884354
asS'[(5, 2), (5, 4)]'
p4585
(lp4586
F131.75
aI148
aF0.8902027027027027
asS'[(7, 3), (13, 4)]'
p4587
(lp4588
F104.75
aI139
aF0.7535971223021583
asS'[(2, 3), (13, 2)]'
p4589
(lp4590
F117.5
aI161
aF0.7298136645962733
asS'[(14, 4), (7, 4)]'
p4591
(lp4592
F143.25
aI180
aF0.7958333333333333
asS'[(6, 3), (4, 4)]'
p4593
(lp4594
F128.0
aI164
aF0.7804878048780488
asS'[(6, 4), (11, 4)]'
p4595
(lp4596
F110.0
aI146
aF0.7534246575342466
asS'[(12, 1), (6, 2)]'
p4597
(lp4598
F107.75
aI143
aF0.7534965034965035
asS'[(14, 4), (12, 2)]'
p4599
(lp4600
F105.25
aI141
aF0.7464539007092199
asS'[(6, 3), (13, 3)]'
p4601
(lp4602
F106.75
aI140
aF0.7625
asS'[(5, 2), (10, 1)]'
p4603
(lp4604
F104.25
aI142
aF0.7341549295774648
asS'[(5, 2), (12, 3)]'
p4605
(lp4606
F126.75
aI178
aF0.7120786516853933
asS'[(9, 2), (10, 4)]'
p4607
(lp4608
F109.25
aI139
aF0.7859712230215827
asS'[(3, 4), (7, 4)]'
p4609
(lp4610
F119.5
aI156
aF0.7660256410256411
asS'[(6, 2), (8, 2)]'
p4611
(lp4612
F114.0
aI150
aF0.76
asS'[(12, 3), (7, 1)]'
p4613
(lp4614
F116.5
aI150
aF0.7766666666666666
asS'[(12, 1), (12, 3)]'
p4615
(lp4616
F130.5
aI145
aF0.9
asS'[(10, 1), (11, 4)]'
p4617
(lp4618
F106.5
aI142
aF0.75
asS'[(2, 4), (14, 2)]'
p4619
(lp4620
F103.75
aI136
aF0.7628676470588235
asS'[(2, 3), (4, 2)]'
p4621
(lp4622
F128.75
aI165
aF0.7803030303030303
asS'[(14, 1), (7, 3)]'
p4623
(lp4624
F124.75
aI158
aF0.7895569620253164
asS'[(9, 4), (12, 1)]'
p4625
(lp4626
F133.75
aI173
aF0.773121387283237
asS'[(5, 1), (8, 1)]'
p4627
(lp4628
F107.5
aI143
aF0.7517482517482518
asS'[(5, 4), (7, 2)]'
p4629
(lp4630
F108.25
aI134
aF0.8078358208955224
asS'[(6, 3), (5, 3)]'
p4631
(lp4632
F113.0
aI141
aF0.8014184397163121
asS'[(6, 2), (10, 2)]'
p4633
(lp4634
F125.0
aI164
aF0.7621951219512195
asS'[(13, 4), (4, 4)]'
p4635
(lp4636
F118.0
aI156
aF0.7564102564102564
asS'[(2, 1), (6, 4)]'
p4637
(lp4638
F107.75
aI142
aF0.7588028169014085
asS'[(8, 4), (7, 1)]'
p4639
(lp4640
F105.5
aI139
aF0.7589928057553957
asS'[(9, 1), (4, 4)]'
p4641
(lp4642
F132.25
aI179
aF0.7388268156424581
asS'[(2, 1), (8, 4)]'
p4643
(lp4644
F139.0
aI180
aF0.7722222222222223
asS'[(5, 1), (7, 3)]'
p4645
(lp4646
F114.5
aI150
aF0.7633333333333333
asS'[(10, 1), (14, 1)]'
p4647
(lp4648
F126.5
aI165
aF0.7666666666666667
asS'[(10, 2), (11, 2)]'
p4649
(lp4650
F122.25
aI154
aF0.7938311688311688
asS'[(12, 2), (5, 1)]'
p4651
(lp4652
F112.0
aI144
aF0.7777777777777778
asS'[(14, 4), (2, 2)]'
p4653
(lp4654
F129.25
aI163
aF0.7929447852760736
asS'[(14, 4), (4, 1)]'
p4655
(lp4656
F119.75
aI155
aF0.7725806451612903
asS'[(11, 1), (12, 2)]'
p4657
(lp4658
F129.0
aI167
aF0.7724550898203593
asS'[(3, 2), (11, 2)]'
p4659
(lp4660
F121.5
aI160
aF0.759375
asS'[(12, 2), (5, 4)]'
p4661
(lp4662
F117.0
aI155
aF0.7548387096774194
asS'[(10, 1), (9, 4)]'
p4663
(lp4664
F116.75
aI147
aF0.79421768707483
asS'[(3, 2), (7, 1)]'
p4665
(lp4666
F97.5
aI133
aF0.7330827067669173
asS'[(7, 3), (2, 4)]'
p4667
(lp4668
F111.75
aI151
aF0.7400662251655629
asS'[(14, 4), (13, 1)]'
p4669
(lp4670
F127.75
aI172
aF0.7427325581395349
asS'[(3, 3), (8, 1)]'
p4671
(lp4672
F126.0
aI172
aF0.7325581395348837
asS'[(8, 3), (8, 4)]'
p4673
(lp4674
F126.75
aI144
aF0.8802083333333334
asS'[(10, 4), (10, 3)]'
p4675
(lp4676
F131.25
aI145
aF0.9051724137931034
asS'[(12, 4), (9, 1)]'
p4677
(lp4678
F119.5
aI159
aF0.7515723270440252
asS'[(12, 2), (10, 4)]'
p4679
(lp4680
F121.5
aI158
aF0.7689873417721519
asS'[(9, 4), (4, 4)]'
p4681
(lp4682
F124.75
aI162
aF0.7700617283950617
asS'[(11, 4), (2, 1)]'
p4683
(lp4684
F111.0
aI151
aF0.7350993377483444
asS'[(9, 2), (7, 2)]'
p4685
(lp4686
F119.0
aI150
aF0.7933333333333333
asS'[(5, 3), (14, 2)]'
p4687
(lp4688
F117.0
aI154
aF0.7597402597402597
asS'[(7, 3), (3, 2)]'
p4689
(lp4690
F120.0
aI156
aF0.7692307692307693
asS'[(8, 3), (13, 1)]'
p4691
(lp4692
F109.5
aI140
aF0.7821428571428571
asS'[(13, 1), (4, 3)]'
p4693
(lp4694
F110.25
aI144
aF0.765625
asS'[(9, 2), (6, 4)]'
p4695
(lp4696
F121.75
aI158
aF0.7705696202531646
asS'[(6, 3), (9, 3)]'
p4697
(lp4698
F123.75
aI158
aF0.7832278481012658
asS'[(9, 2), (3, 1)]'
p4699
(lp4700
F118.5
aI151
aF0.7847682119205298
asS'[(10, 3), (3, 4)]'
p4701
(lp4702
F113.5
aI151
aF0.7516556291390728
asS'[(2, 3), (10, 4)]'
p4703
(lp4704
F120.75
aI159
aF0.7594339622641509
asS'[(9, 2), (3, 4)]'
p4705
(lp4706
F114.25
aI150
aF0.7616666666666667
asS'[(4, 2), (5, 3)]'
p4707
(lp4708
F114.75
aI146
aF0.785958904109589
asS'[(8, 1), (8, 4)]'
p4709
(lp4710
F133.25
aI147
aF0.9064625850340136
asS'[(3, 4), (14, 4)]'
p4711
(lp4712
F100.75
aI131
aF0.7690839694656488
asS'[(7, 2), (13, 4)]'
p4713
(lp4714
F114.5
aI153
aF0.7483660130718954
asS'[(10, 4), (11, 3)]'
p4715
(lp4716
F126.5
aI164
aF0.7713414634146342
asS'[(2, 3), (2, 4)]'
p4717
(lp4718
F159.25
aI176
aF0.9048295454545454
asS'[(7, 2), (8, 3)]'
p4719
(lp4720
F126.25
aI156
aF0.8092948717948718
asS'[(14, 4), (3, 3)]'
p4721
(lp4722
F101.75
aI132
aF0.7708333333333334
asS'[(5, 1), (2, 2)]'
p4723
(lp4724
F124.75
aI159
aF0.7845911949685535
asS'[(6, 4), (12, 1)]'
p4725
(lp4726
F113.75
aI153
aF0.7434640522875817
asS'[(13, 2), (5, 4)]'
p4727
(lp4728
F110.5
aI147
aF0.7517006802721088
asS'[(7, 3), (14, 1)]'
p4729
(lp4730
F117.0
aI158
aF0.740506329113924
asS'[(14, 1), (3, 2)]'
p4731
(lp4732
F98.5
aI137
aF0.718978102189781
asS'[(8, 3), (12, 1)]'
p4733
(lp4734
F118.5
aI156
aF0.7596153846153846
asS'[(14, 2), (3, 3)]'
p4735
(lp4736
F118.25
aI160
aF0.7390625
asS'[(10, 2), (6, 3)]'
p4737
(lp4738
F106.0
aI140
aF0.7571428571428571
asS'[(6, 4), (14, 4)]'
p4739
(lp4740
F102.75
aI136
aF0.7555147058823529
asS'[(2, 1), (10, 3)]'
p4741
(lp4742
F115.25
aI152
aF0.7582236842105263
asS'[(5, 3), (10, 4)]'
p4743
(lp4744
F128.5
aI169
aF0.7603550295857988
asS'[(12, 2), (8, 3)]'
p4745
(lp4746
F115.25
aI154
aF0.7483766233766234
asS'[(13, 1), (7, 2)]'
p4747
(lp4748
F122.5
aI159
aF0.7704402515723271
asS'[(10, 1), (8, 3)]'
p4749
(lp4750
F114.75
aI149
aF0.7701342281879194
asS'[(13, 4), (11, 3)]'
p4751
(lp4752
F123.5
aI167
aF0.7395209580838323
asS'[(14, 3), (9, 4)]'
p4753
(lp4754
F117.25
aI160
aF0.7328125
asS'[(10, 2), (2, 4)]'
p4755
(lp4756
F126.5
aI167
aF0.7574850299401198
asS'[(8, 2), (7, 1)]'
p4757
(lp4758
F136.0
aI174
aF0.7816091954022989
asS'[(11, 2), (4, 4)]'
p4759
(lp4760
F126.75
aI165
aF0.7681818181818182
asS'[(11, 2), (14, 1)]'
p4761
(lp4762
F111.5
aI142
aF0.7852112676056338
asS'[(4, 2), (11, 4)]'
p4763
(lp4764
F113.25
aI153
aF0.7401960784313726
asS'[(5, 3), (8, 3)]'
p4765
(lp4766
F140.25
aI181
aF0.7748618784530387
asS'[(9, 4), (6, 1)]'
p4767
(lp4768
F109.0
aI149
aF0.7315436241610739
asS'[(11, 4), (3, 2)]'
p4769
(lp4770
F114.75
aI149
aF0.7701342281879194
asS'[(11, 4), (5, 2)]'
p4771
(lp4772
F110.25
aI152
aF0.725328947368421
asS'[(8, 4), (14, 2)]'
p4773
(lp4774
F123.25
aI157
aF0.785031847133758
asS'[(2, 3), (9, 3)]'
p4775
(lp4776
F118.0
aI154
aF0.7662337662337663
asS'[(7, 3), (2, 2)]'
p4777
(lp4778
F134.25
aI174
aF0.771551724137931
asS'[(12, 4), (3, 2)]'
p4779
(lp4780
F112.25
aI149
aF0.7533557046979866
asS'[(3, 3), (11, 3)]'
p4781
(lp4782
F116.5
aI149
aF0.7818791946308725
asS'[(9, 1), (7, 4)]'
p4783
(lp4784
F111.5
aI144
aF0.7743055555555556
asS'[(6, 1), (13, 3)]'
p4785
(lp4786
F111.25
aI144
aF0.7725694444444444
asS'[(8, 1), (9, 3)]'
p4787
(lp4788
F123.0
aI163
aF0.754601226993865
asS'[(4, 4), (14, 4)]'
p4789
(lp4790
F123.25
aI164
aF0.7515243902439024
asS'[(11, 3), (6, 2)]'
p4791
(lp4792
F115.25
aI155
aF0.7435483870967742
asS'[(10, 2), (7, 3)]'
p4793
(lp4794
F120.25
aI152
aF0.7911184210526315
asS'[(4, 1), (5, 4)]'
p4795
(lp4796
F107.5
aI139
aF0.7733812949640287
asS'[(3, 1), (11, 4)]'
p4797
(lp4798
F112.25
aI148
aF0.7584459459459459
asS'[(13, 1), (14, 3)]'
p4799
(lp4800
F110.25
aI145
aF0.7603448275862069
asS'[(8, 1), (11, 4)]'
p4801
(lp4802
F117.0
aI152
aF0.7697368421052632
asS'[(6, 3), (2, 2)]'
p4803
(lp4804
F125.5
aI168
aF0.7470238095238095
asS'[(12, 4), (2, 3)]'
p4805
(lp4806
F111.75
aI149
aF0.75
asS'[(11, 1), (3, 4)]'
p4807
(lp4808
F112.25
aI139
aF0.8075539568345323
asS'[(9, 4), (5, 3)]'
p4809
(lp4810
F107.0
aI135
aF0.7925925925925926
asS'[(14, 1), (5, 3)]'
p4811
(lp4812
F97.25
aI131
aF0.7423664122137404
asS'[(13, 3), (4, 2)]'
p4813
(lp4814
F106.0
aI141
aF0.75177304964539
asS'[(8, 2), (12, 1)]'
p4815
(lp4816
F104.75
aI144
aF0.7274305555555556
asS'[(11, 1), (2, 2)]'
p4817
(lp4818
F121.25
aI156
aF0.7772435897435898
asS'[(7, 1), (5, 4)]'
p4819
(lp4820
F118.0
aI152
aF0.7763157894736842
asS'[(9, 3), (7, 4)]'
p4821
(lp4822
F116.25
aI152
aF0.7648026315789473
asS'[(11, 4), (3, 1)]'
p4823
(lp4824
F123.75
aI157
aF0.7882165605095541
asS'[(10, 4), (7, 1)]'
p4825
(lp4826
F128.5
aI166
aF0.7740963855421686
asS'[(11, 1), (2, 4)]'
p4827
(lp4828
F113.75
aI148
aF0.768581081081081
asS'[(8, 3), (7, 4)]'
p4829
(lp4830
F118.0
aI157
aF0.7515923566878981
asS'[(4, 1), (4, 2)]'
p4831
(lp4832
F136.75
aI150
aF0.9116666666666666
asS'[(14, 2), (14, 1)]'
p4833
(lp4834
F131.5
aI143
aF0.9195804195804196
asS'[(14, 1), (9, 3)]'
p4835
(lp4836
F107.0
aI142
aF0.7535211267605634
asS'[(14, 2), (12, 2)]'
p4837
(lp4838
F111.0
aI147
aF0.7551020408163265
asS'[(6, 1), (12, 4)]'
p4839
(lp4840
F113.75
aI150
aF0.7583333333333333
asS'[(4, 1), (11, 1)]'
p4841
(lp4842
F119.0
aI159
aF0.7484276729559748
asS'[(6, 2), (8, 4)]'
p4843
(lp4844
F108.25
aI143
aF0.756993006993007
asS'[(6, 4), (6, 2)]'
p4845
(lp4846
F143.0
aI157
aF0.910828025477707
asS'[(9, 3), (14, 4)]'
p4847
(lp4848
F125.5
aI164
aF0.7652439024390244
asS'[(3, 1), (3, 2)]'
p4849
(lp4850
F128.5
aI144
aF0.8923611111111112
asS'[(8, 4), (7, 3)]'
p4851
(lp4852
F112.0
aI139
aF0.8057553956834532
asS'[(12, 1), (5, 1)]'
p4853
(lp4854
F121.75
aI157
aF0.7754777070063694
asS'[(9, 4), (8, 1)]'
p4855
(lp4856
F115.25
aI148
aF0.7787162162162162
asS'[(11, 3), (3, 4)]'
p4857
(lp4858
F124.0
aI167
aF0.7425149700598802
asS'[(13, 4), (4, 3)]'
p4859
(lp4860
F118.5
aI150
aF0.79
asS'[(13, 3), (14, 1)]'
p4861
(lp4862
F110.25
aI149
aF0.7399328859060402
asS'[(7, 4), (11, 2)]'
p4863
(lp4864
F99.25
aI135
aF0.7351851851851852
asS'[(14, 2), (6, 2)]'
p4865
(lp4866
F110.75
aI145
aF0.7637931034482759
asS'[(5, 2), (7, 2)]'
p4867
(lp4868
F120.0
aI151
aF0.7947019867549668
asS'[(8, 4), (2, 1)]'
p4869
(lp4870
F114.5
aI155
aF0.7387096774193549
asS'[(2, 2), (3, 1)]'
p4871
(lp4872
F115.5
aI152
aF0.7598684210526315
asS'[(14, 3), (7, 1)]'
p4873
(lp4874
F113.25
aI149
aF0.7600671140939598
asS'[(10, 3), (5, 1)]'
p4875
(lp4876
F120.0
aI157
aF0.7643312101910829
asS'[(11, 3), (12, 1)]'
p4877
(lp4878
F99.5
aI135
aF0.737037037037037
asS'[(6, 2), (9, 2)]'
p4879
(lp4880
F117.5
aI158
aF0.7436708860759493
asS'[(7, 1), (6, 4)]'
p4881
(lp4882
F105.75
aI135
aF0.7833333333333333
asS'[(4, 3), (10, 4)]'
p4883
(lp4884
F104.25
aI135
aF0.7722222222222223
asS'[(12, 1), (5, 2)]'
p4885
(lp4886
F119.25
aI158
aF0.754746835443038
asS'[(3, 1), (7, 2)]'
p4887
(lp4888
F112.0
aI151
aF0.7417218543046358
asS'[(10, 3), (9, 2)]'
p4889
(lp4890
F98.0
aI131
aF0.7480916030534351
asS'[(11, 2), (10, 3)]'
p4891
(lp4892
F133.25
aI158
aF0.8433544303797469
asS'[(10, 1), (5, 3)]'
p4893
(lp4894
F102.75
aI136
aF0.7555147058823529
asS'[(14, 4), (11, 2)]'
p4895
(lp4896
F118.0
aI157
aF0.7515923566878981
asS'[(5, 3), (12, 2)]'
p4897
(lp4898
F127.5
aI172
aF0.7412790697674418
asS'[(3, 2), (5, 2)]'
p4899
(lp4900
F122.0
aI152
aF0.8026315789473685
asS'[(10, 1), (12, 4)]'
p4901
(lp4902
F107.5
aI141
aF0.7624113475177305
asS'[(7, 2), (4, 2)]'
p4903
(lp4904
F119.0
aI158
aF0.7531645569620253
asS'[(4, 2), (9, 3)]'
p4905
(lp4906
F113.5
aI145
aF0.7827586206896552
asS'[(13, 2), (9, 1)]'
p4907
(lp4908
F110.25
aI145
aF0.7603448275862069
asS'[(4, 3), (11, 3)]'
p4909
(lp4910
F115.0
aI148
aF0.777027027027027
asS'[(7, 4), (14, 4)]'
p4911
(lp4912
F120.75
aI151
aF0.7996688741721855
asS'[(11, 4), (8, 1)]'
p4913
(lp4914
F106.75
aI142
aF0.7517605633802817
asS'[(9, 1), (10, 4)]'
p4915
(lp4916
F115.75
aI149
aF0.7768456375838926
asS'[(2, 4), (2, 3)]'
p4917
(lp4918
F136.25
aI147
aF0.9268707482993197
asS'[(14, 1), (11, 2)]'
p4919
(lp4920
F105.5
aI136
aF0.7757352941176471
asS'[(4, 4), (2, 1)]'
p4921
(lp4922
F120.25
aI162
aF0.7422839506172839
asS'[(14, 3), (4, 1)]'
p4923
(lp4924
F107.25
aI143
aF0.75
asS'[(6, 4), (7, 2)]'
p4925
(lp4926
F121.25
aI153
aF0.7924836601307189
asS'[(9, 4), (2, 2)]'
p4927
(lp4928
F99.25
aI139
aF0.7140287769784173
asS'[(10, 2), (6, 4)]'
p4929
(lp4930
F125.0
aI163
aF0.7668711656441718
asS'[(10, 3), (13, 3)]'
p4931
(lp4932
F109.0
aI138
aF0.7898550724637681
asS'[(6, 3), (9, 1)]'
p4933
(lp4934
F112.25
aI141
aF0.7960992907801419
asS'[(9, 1), (3, 2)]'
p4935
(lp4936
F125.0
aI162
aF0.7716049382716049
asS'[(10, 2), (13, 3)]'
p4937
(lp4938
F120.75
aI159
aF0.7594339622641509
asS'[(9, 2), (14, 3)]'
p4939
(lp4940
F107.25
aI144
aF0.7447916666666666
asS'[(13, 2), (10, 3)]'
p4941
(lp4942
F123.5
aI158
aF0.7816455696202531
asS'[(5, 1), (13, 1)]'
p4943
(lp4944
F105.25
aI139
aF0.7571942446043165
asS'[(13, 4), (5, 3)]'
p4945
(lp4946
F125.25
aI171
aF0.7324561403508771
asS'[(13, 4), (14, 3)]'
p4947
(lp4948
F111.0
aI145
aF0.7655172413793103
asS'[(11, 3), (3, 2)]'
p4949
(lp4950
F115.0
aI151
aF0.7615894039735099
asS'[(6, 3), (4, 3)]'
p4951
(lp4952
F118.0
aI152
aF0.7763157894736842
asS'[(7, 4), (5, 1)]'
p4953
(lp4954
F119.5
aI158
aF0.7563291139240507
asS'[(2, 3), (8, 4)]'
p4955
(lp4956
F104.0
aI136
aF0.7647058823529411
asS'[(5, 4), (3, 1)]'
p4957
(lp4958
F107.75
aI145
aF0.743103448275862
asS'[(12, 1), (3, 1)]'
p4959
(lp4960
F118.0
aI160
aF0.7375
asS'[(10, 2), (5, 1)]'
p4961
(lp4962
F105.0
aI133
aF0.7894736842105263
asS'[(2, 3), (6, 4)]'
p4963
(lp4964
F113.25
aI143
aF0.791958041958042
asS'[(3, 1), (2, 3)]'
p4965
(lp4966
F132.25
aI179
aF0.7388268156424581
asS'[(13, 2), (3, 2)]'
p4967
(lp4968
F123.25
aI163
aF0.7561349693251533
asS'[(3, 2), (5, 4)]'
p4969
(lp4970
F107.25
aI154
aF0.6964285714285714
asS'[(14, 2), (5, 4)]'
p4971
(lp4972
F116.0
aI150
aF0.7733333333333333
asS'[(7, 4), (10, 3)]'
p4973
(lp4974
F115.0
aI155
aF0.7419354838709677
asS'[(4, 2), (7, 2)]'
p4975
(lp4976
F90.0
aI124
aF0.7258064516129032
asS'[(5, 2), (13, 1)]'
p4977
(lp4978
F116.5
aI156
aF0.7467948717948718
asS'[(7, 2), (12, 1)]'
p4979
(lp4980
F131.75
aI176
aF0.7485795454545454
asS'[(10, 3), (11, 3)]'
p4981
(lp4982
F116.0
aI149
aF0.7785234899328859
asS'[(11, 3), (4, 1)]'
p4983
(lp4984
F119.0
aI158
aF0.7531645569620253
asS'[(13, 3), (8, 2)]'
p4985
(lp4986
F113.0
aI147
aF0.7687074829931972
asS'[(9, 1), (4, 2)]'
p4987
(lp4988
F118.0
aI151
aF0.7814569536423841
asS'[(14, 4), (12, 1)]'
p4989
(lp4990
F110.25
aI148
aF0.7449324324324325
asS'[(12, 1), (6, 1)]'
p4991
(lp4992
F119.0
aI157
aF0.7579617834394905
asS'[(13, 2), (3, 3)]'
p4993
(lp4994
F135.75
aI174
aF0.7801724137931034
asS'[(14, 1), (10, 4)]'
p4995
(lp4996
F118.75
aI156
aF0.7612179487179487
asS'[(4, 4), (13, 2)]'
p4997
(lp4998
F97.25
aI134
aF0.7257462686567164
asS'[(9, 2), (12, 1)]'
p4999
(lp5000
F117.5
aI155
aF0.7580645161290323
asS'[(3, 3), (4, 1)]'
p5001
(lp5002
F110.75
aI149
aF0.7432885906040269
asS'[(12, 3), (4, 2)]'
p5003
(lp5004
F124.25
aI162
aF0.7669753086419753
asS'[(2, 3), (4, 1)]'
p5005
(lp5006
F106.5
aI148
aF0.7195945945945946
asS'[(10, 2), (8, 2)]'
p5007
(lp5008
F118.25
aI153
aF0.7728758169934641
asS'[(7, 2), (9, 1)]'
p5009
(lp5010
F114.25
aI145
aF0.7879310344827586
asS'[(14, 4), (8, 4)]'
p5011
(lp5012
F111.25
aI146
aF0.761986301369863
asS'[(5, 4), (6, 2)]'
p5013
(lp5014
F122.75
aI160
aF0.7671875
asS'[(3, 4), (12, 1)]'
p5015
(lp5016
F126.25
aI165
aF0.7651515151515151
asS'[(8, 3), (14, 2)]'
p5017
(lp5018
F121.75
aI163
aF0.7469325153374233
asS'[(14, 4), (2, 1)]'
p5019
(lp5020
F101.0
aI132
aF0.7651515151515151
asS'[(13, 2), (4, 3)]'
p5021
(lp5022
F102.0
aI132
aF0.7727272727272727
asS'[(2, 2), (7, 3)]'
p5023
(lp5024
F102.75
aI128
aF0.802734375
asS'[(14, 3), (3, 3)]'
p5025
(lp5026
F102.0
aI136
aF0.75
asS'[(10, 1), (9, 3)]'
p5027
(lp5028
F119.5
aI156
aF0.7660256410256411
asS'[(3, 2), (6, 1)]'
p5029
(lp5030
F124.0
aI159
aF0.779874213836478
asS'[(9, 3), (6, 3)]'
p5031
(lp5032
F129.5
aI169
aF0.7662721893491125
asS'[(10, 4), (8, 4)]'
p5033
(lp5034
F117.0
aI154
aF0.7597402597402597
asS'[(3, 2), (10, 1)]'
p5035
(lp5036
F97.25
aI130
aF0.7480769230769231
asS'[(14, 1), (14, 3)]'
p5037
(lp5038
F122.5
aI136
aF0.9007352941176471
asS'[(5, 4), (11, 1)]'
p5039
(lp5040
F118.0
aI155
aF0.7612903225806451
asS'[(8, 2), (11, 1)]'
p5041
(lp5042
F125.0
aI160
aF0.78125
asS'[(8, 2), (13, 2)]'
p5043
(lp5044
F115.0
aI152
aF0.756578947368421
asS'[(7, 4), (10, 2)]'
p5045
(lp5046
F125.5
aI162
aF0.7746913580246914
asS'[(9, 1), (2, 1)]'
p5047
(lp5048
F124.5
aI163
aF0.7638036809815951
asS'[(6, 4), (10, 1)]'
p5049
(lp5050
F121.5
aI157
aF0.7738853503184714
asS'[(5, 4), (10, 2)]'
p5051
(lp5052
F107.25
aI139
aF0.7715827338129496
asS'[(9, 2), (6, 2)]'
p5053
(lp5054
F126.25
aI158
aF0.7990506329113924
asS'[(7, 2), (9, 3)]'
p5055
(lp5056
F118.75
aI153
aF0.7761437908496732
asS'[(12, 3), (14, 1)]'
p5057
(lp5058
F123.5
aI160
aF0.771875
asS'[(3, 2), (14, 3)]'
p5059
(lp5060
F107.5
aI139
aF0.7733812949640287
asS'[(6, 3), (9, 4)]'
p5061
(lp5062
F110.0
aI148
aF0.7432432432432432
asS'[(11, 1), (6, 3)]'
p5063
(lp5064
F100.75
aI135
aF0.7462962962962963
asS'[(2, 2), (14, 4)]'
p5065
(lp5066
F101.75
aI134
aF0.7593283582089553
asS'[(14, 4), (3, 4)]'
p5067
(lp5068
F106.5
aI133
aF0.8007518796992481
asS'[(13, 3), (8, 4)]'
p5069
(lp5070
F111.0
aI150
aF0.74
asS'[(6, 1), (9, 4)]'
p5071
(lp5072
F106.25
aI145
aF0.7327586206896551
asS'[(8, 1), (8, 3)]'
p5073
(lp5074
F136.25
aI155
aF0.8790322580645161
asS'[(6, 2), (13, 3)]'
p5075
(lp5076
F128.25
aI158
aF0.8117088607594937
asS'[(9, 4), (10, 2)]'
p5077
(lp5078
F118.0
aI155
aF0.7612903225806451
asS'[(8, 2), (6, 1)]'
p5079
(lp5080
F110.0
aI142
aF0.7746478873239436
asS'[(10, 1), (2, 3)]'
p5081
(lp5082
F103.25
aI136
aF0.7591911764705882
asS'[(14, 4), (6, 2)]'
p5083
(lp5084
F127.25
aI173
aF0.7355491329479769
asS'[(13, 3), (7, 2)]'
p5085
(lp5086
F101.75
aI137
aF0.7427007299270073
asS'[(10, 3), (4, 1)]'
p5087
(lp5088
F110.25
aI147
aF0.75
asS'[(7, 4), (9, 4)]'
p5089
(lp5090
F104.25
aI135
aF0.7722222222222223
asS'[(4, 2), (14, 2)]'
p5091
(lp5092
F114.0
aI147
aF0.7755102040816326
asS'[(4, 3), (3, 2)]'
p5093
(lp5094
F125.5
aI163
aF0.7699386503067485
asS'[(2, 1), (6, 3)]'
p5095
(lp5096
F101.25
aI140
aF0.7232142857142857
asS'[(8, 1), (4, 3)]'
p5097
(lp5098
F123.0
aI164
aF0.75
asS'[(13, 3), (5, 3)]'
p5099
(lp5100
F99.0
aI132
aF0.75
asS'[(2, 2), (9, 2)]'
p5101
(lp5102
F127.5
aI163
aF0.7822085889570553
asS'[(5, 3), (9, 1)]'
p5103
(lp5104
F104.0
aI132
aF0.7878787878787878
asS'[(11, 3), (7, 3)]'
p5105
(lp5106
F119.25
aI154
aF0.7743506493506493
asS'[(5, 4), (5, 3)]'
p5107
(lp5108
F140.75
aI157
aF0.8964968152866242
asS'[(5, 3), (10, 3)]'
p5109
(lp5110
F111.75
aI145
aF0.7706896551724138
asS'[(8, 2), (2, 1)]'
p5111
(lp5112
F121.25
aI163
aF0.7438650306748467
asS'[(9, 1), (7, 2)]'
p5113
(lp5114
F122.75
aI161
aF0.7624223602484472
asS'[(12, 1), (2, 1)]'
p5115
(lp5116
F110.25
aI146
aF0.7551369863013698
asS'[(12, 1), (9, 3)]'
p5117
(lp5118
F108.0
aI146
aF0.7397260273972602
asS'[(13, 3), (8, 3)]'
p5119
(lp5120
F96.5
aI133
aF0.7255639097744361
asS'[(7, 3), (5, 1)]'
p5121
(lp5122
F118.75
aI152
aF0.78125
asS'[(5, 2), (3, 3)]'
p5123
(lp5124
F127.0
aI167
aF0.7604790419161677
asS'[(4, 1), (13, 1)]'
p5125
(lp5126
F117.75
aI152
aF0.774671052631579
asS'[(11, 4), (12, 4)]'
p5127
(lp5128
F98.5
aI131
aF0.7519083969465649
asS'[(14, 1), (11, 4)]'
p5129
(lp5130
F115.75
aI157
aF0.7372611464968153
asS'[(8, 2), (3, 3)]'
p5131
(lp5132
F97.0
aI129
aF0.751937984496124
asS'[(7, 4), (12, 2)]'
p5133
(lp5134
F100.75
aI132
aF0.7632575757575758
asS'[(8, 4), (2, 2)]'
p5135
(lp5136
F111.0
aI146
aF0.7602739726027398
asS'[(5, 3), (13, 3)]'
p5137
(lp5138
F109.5
aI143
aF0.7657342657342657
asS'[(11, 4), (4, 2)]'
p5139
(lp5140
F116.75
aI158
aF0.7389240506329114
asS'[(12, 2), (11, 4)]'
p5141
(lp5142
F137.0
aI174
aF0.7873563218390804
asS'[(3, 3), (8, 4)]'
p5143
(lp5144
F122.75
aI163
aF0.7530674846625767
asS'[(11, 3), (12, 2)]'
p5145
(lp5146
F112.5
aI147
aF0.7653061224489796
asS'[(2, 4), (4, 4)]'
p5147
(lp5148
F105.5
aI141
aF0.74822695035461
asS'[(13, 1), (11, 4)]'
p5149
(lp5150
F131.5
aI165
aF0.796969696969697
asS'[(6, 1), (11, 2)]'
p5151
(lp5152
F122.5
aI160
aF0.765625
asS'[(2, 4), (9, 2)]'
p5153
(lp5154
F125.25
aI167
aF0.75
asS'[(14, 3), (7, 2)]'
p5155
(lp5156
F100.0
aI133
aF0.7518796992481203
asS'[(7, 3), (12, 3)]'
p5157
(lp5158
F111.5
aI148
aF0.7533783783783784
asS'[(12, 2), (6, 4)]'
p5159
(lp5160
F120.25
aI155
aF0.7758064516129032
asS'[(10, 3), (3, 2)]'
p5161
(lp5162
F134.75
aI180
aF0.7486111111111111
asS'[(5, 1), (11, 2)]'
p5163
(lp5164
F104.0
aI136
aF0.7647058823529411
asS'[(11, 3), (6, 1)]'
p5165
(lp5166
F103.75
aI139
aF0.7464028776978417
asS'[(8, 2), (3, 1)]'
p5167
(lp5168
F123.25
aI160
aF0.7703125
asS'[(3, 1), (10, 4)]'
p5169
(lp5170
F94.75
aI128
aF0.740234375
asS'[(4, 1), (4, 4)]'
p5171
(lp5172
F144.0
aI160
aF0.9
asS'[(9, 2), (10, 2)]'
p5173
(lp5174
F111.0
aI137
aF0.8102189781021898
asS'[(2, 1), (5, 1)]'
p5175
(lp5176
F107.75
aI144
aF0.7482638888888888
asS'[(13, 3), (3, 1)]'
p5177
(lp5178
F127.0
aI166
aF0.7650602409638554
asS'[(9, 3), (7, 3)]'
p5179
(lp5180
F124.25
aI152
aF0.8174342105263158
asS'[(13, 2), (7, 2)]'
p5181
(lp5182
F108.5
aI143
aF0.7587412587412588
asS'[(12, 2), (12, 1)]'
p5183
(lp5184
F122.25
aI137
aF0.8923357664233577
asS'[(6, 4), (2, 1)]'
p5185
(lp5186
F122.0
aI164
aF0.7439024390243902
asS'[(2, 4), (10, 4)]'
p5187
(lp5188
F111.0
aI144
aF0.7708333333333334
asS'[(11, 2), (9, 3)]'
p5189
(lp5190
F105.0
aI139
aF0.7553956834532374
asS'[(7, 2), (4, 3)]'
p5191
(lp5192
F120.0
aI149
aF0.8053691275167785
asS'[(8, 3), (7, 2)]'
p5193
(lp5194
F118.75
aI152
aF0.78125
asS'[(8, 3), (5, 1)]'
p5195
(lp5196
F109.75
aI145
aF0.756896551724138
asS'[(10, 4), (7, 2)]'
p5197
(lp5198
F112.25
aI147
aF0.7636054421768708
asS'[(6, 1), (8, 1)]'
p5199
(lp5200
F105.75
aI132
aF0.8011363636363636
asS'[(9, 3), (14, 3)]'
p5201
(lp5202
F108.75
aI137
aF0.7937956204379562
asS'[(12, 1), (4, 4)]'
p5203
(lp5204
F120.75
aI162
aF0.7453703703703703
asS'[(14, 4), (10, 4)]'
p5205
(lp5206
F122.25
aI152
aF0.8042763157894737
asS'[(13, 2), (12, 2)]'
p5207
(lp5208
F119.0
aI153
aF0.7777777777777778
asS'[(10, 3), (11, 1)]'
p5209
(lp5210
F101.0
aI136
aF0.7426470588235294
asS'[(9, 3), (11, 1)]'
p5211
(lp5212
F102.0
aI129
aF0.7906976744186046
asS'[(8, 1), (2, 4)]'
p5213
(lp5214
F113.0
aI147
aF0.7687074829931972
asS'[(7, 1), (6, 2)]'
p5215
(lp5216
F123.5
aI161
aF0.7670807453416149
asS'[(10, 4), (4, 1)]'
p5217
(lp5218
F108.5
aI143
aF0.7587412587412588
asS'[(4, 3), (14, 1)]'
p5219
(lp5220
F111.25
aI152
aF0.7319078947368421
asS'[(3, 4), (2, 2)]'
p5221
(lp5222
F116.5
aI150
aF0.7766666666666666
asS'[(6, 1), (10, 1)]'
p5223
(lp5224
F103.5
aI136
aF0.7610294117647058
asS'[(5, 2), (2, 1)]'
p5225
(lp5226
F109.25
aI148
aF0.7381756756756757
asS'[(4, 3), (6, 2)]'
p5227
(lp5228
F112.75
aI144
aF0.7829861111111112
asS'[(7, 1), (12, 1)]'
p5229
(lp5230
F122.25
aI158
aF0.7737341772151899
asS'[(2, 4), (13, 1)]'
p5231
(lp5232
F118.25
aI161
aF0.734472049689441
asS'[(13, 1), (12, 3)]'
p5233
(lp5234
F118.75
aI158
aF0.7515822784810127
asS'[(7, 4), (5, 2)]'
p5235
(lp5236
F120.5
aI151
aF0.7980132450331126
asS'[(12, 4), (14, 1)]'
p5237
(lp5238
F100.75
aI135
aF0.7462962962962963
asS'[(5, 1), (11, 4)]'
p5239
(lp5240
F118.75
aI150
aF0.7916666666666666
asS'[(3, 4), (11, 3)]'
p5241
(lp5242
F109.5
aI145
aF0.7551724137931034
asS'[(10, 2), (5, 2)]'
p5243
(lp5244
F134.0
aI173
aF0.7745664739884393
asS'[(2, 3), (8, 3)]'
p5245
(lp5246
F102.75
aI132
aF0.7784090909090909
asS'[(4, 3), (10, 3)]'
p5247
(lp5248
F117.75
aI149
aF0.790268456375839
asS'[(10, 1), (12, 3)]'
p5249
(lp5250
F100.75
aI137
aF0.7354014598540146
asS'[(3, 4), (8, 2)]'
p5251
(lp5252
F107.75
aI142
aF0.7588028169014085
asS'[(4, 4), (3, 1)]'
p5253
(lp5254
F113.75
aI150
aF0.7583333333333333
asS'[(4, 2), (12, 4)]'
p5255
(lp5256
F117.0
aI158
aF0.740506329113924
asS'[(2, 2), (12, 3)]'
p5257
(lp5258
F128.75
aI168
aF0.7663690476190477
asS'[(5, 3), (4, 3)]'
p5259
(lp5260
F109.75
aI136
aF0.8069852941176471
asS'[(10, 2), (10, 3)]'
p5261
(lp5262
F129.0
aI145
aF0.8896551724137931
asS'[(6, 3), (11, 2)]'
p5263
(lp5264
F112.75
aI148
aF0.7618243243243243
asS'[(14, 1), (8, 1)]'
p5265
(lp5266
F95.75
aI128
aF0.748046875
asS'[(10, 3), (12, 2)]'
p5267
(lp5268
F121.75
aI161
aF0.7562111801242236
asS'[(9, 4), (11, 4)]'
p5269
(lp5270
F118.0
aI154
aF0.7662337662337663
asS'[(11, 1), (6, 1)]'
p5271
(lp5272
F111.5
aI144
aF0.7743055555555556
asS'[(9, 2), (13, 1)]'
p5273
(lp5274
F115.75
aI151
aF0.7665562913907285
asS'[(9, 4), (14, 1)]'
p5275
(lp5276
F106.5
aI132
aF0.8068181818181818
asS'[(7, 2), (2, 2)]'
p5277
(lp5278
F114.75
aI143
aF0.8024475524475524
asS'[(12, 1), (2, 3)]'
p5279
(lp5280
F115.75
aI153
aF0.7565359477124183
asS'[(10, 4), (2, 1)]'
p5281
(lp5282
F111.75
aI145
aF0.7706896551724138
asS'[(9, 4), (2, 1)]'
p5283
(lp5284
F97.0
aI135
aF0.7185185185185186
asS'[(9, 4), (14, 4)]'
p5285
(lp5286
F125.25
aI161
aF0.7779503105590062
asS'[(8, 2), (12, 2)]'
p5287
(lp5288
F111.0
aI143
aF0.7762237762237763
asS'[(8, 2), (8, 1)]'
p5289
(lp5290
F149.5
aI172
aF0.8691860465116279
asS'[(6, 3), (9, 2)]'
p5291
(lp5292
F113.0
aI143
aF0.7902097902097902
asS'[(13, 4), (2, 2)]'
p5293
(lp5294
F108.75
aI151
aF0.7201986754966887
asS'[(4, 4), (4, 2)]'
p5295
(lp5296
F147.5
aI165
aF0.8939393939393939
asS'[(9, 2), (2, 3)]'
p5297
(lp5298
F99.25
aI134
aF0.7406716417910447
asS'[(9, 1), (6, 4)]'
p5299
(lp5300
F120.0
aI160
aF0.75
asS'[(13, 1), (9, 2)]'
p5301
(lp5302
F112.25
aI146
aF0.7688356164383562
asS'[(8, 2), (6, 3)]'
p5303
(lp5304
F117.0
aI149
aF0.785234899328859
as.